(dp0
S'Q1'
p1
(dp2
V400278848
p3
I40
sV400278849
p4
I40
sV400278840
p5
I38
sV400278841
p6
I49
sV400278842
p7
I45
sV400278843
p8
I40
sV400278844
p9
I46
sV400278845
p10
I40
sV400278846
p11
I41
sV400278847
p12
I42
sV400277788
p13
I45
sV400277789
p14
I39
sV400277786
p15
I43
sV400277787
p16
I41
sV400277784
p17
I37
sV400277785
p18
I43
sV400277782
p19
I47
sV400277783
p20
I45
sV400277780
p21
I36
sV400277781
p22
I42
sV400278703
p23
I40
sV400278701
p24
I46
sV400488928
p25
I44
sV400488929
p26
I51
sV400488922
p27
I39
sV400488923
p28
I42
sV400488920
p29
I43
sV400488921
p30
I50
sV400488926
p31
I44
sV400488927
p32
I35
sV400488924
p33
I43
sV400488925
p34
I36
sV400489091
p35
I38
sV400489090
p36
I41
sV400489093
p37
I40
sV400489092
p38
I36
sV400489095
p39
I34
sV400489094
p40
I39
sV400489097
p41
I48
sV400489096
p42
I46
sV400489099
p43
I45
sV400489098
p44
I47
sV400278507
p45
I44
sV400278506
p46
I42
sV400278057
p47
I42
sV400278056
p48
I45
sV400459977
p49
I41
sV400459976
p50
I44
sV400459975
p51
I39
sV400459974
p52
I42
sV400459979
p53
I44
sV400459978
p54
I38
sV400464175
p55
I46
sV400464174
p56
I44
sV400278332
p57
I44
sV400278333
p58
I45
sV400278446
p59
I38
sV400278331
p60
I46
sV400278440
p61
I34
sV400278337
p62
I43
sV400278442
p63
I41
sV400278443
p64
I40
sV400278338
p65
I36
sV400278339
p66
I39
sV400278448
p67
I45
sV400278449
p68
I53
sV400278208
p69
I46
sV400278209
p70
I42
sV400278206
p71
I46
sV400278207
p72
I40
sV400278204
p73
I41
sV400278205
p74
I43
sV400278202
p75
I42
sV400278203
p76
I44
sV400278200
p77
I43
sV400278201
p78
I38
sV400278538
p79
I54
sV400278539
p80
I40
sV400278530
p81
I38
sV400278531
p82
I43
sV400278532
p83
I46
sV400278533
p84
I40
sV400278534
p85
I38
sV400278535
p86
I43
sV400278536
p87
I43
sV400278537
p88
I39
sV400278026
p89
I46
sV400278027
p90
I40
sV400278024
p91
I37
sV400278025
p92
I36
sV400278022
p93
I48
sV400278023
p94
I43
sV400278020
p95
I38
sV400278021
p96
I46
sV400278028
p97
I45
sV400278029
p98
I40
sV400491564
p99
I34
sV400491565
p100
I44
sV400491566
p101
I43
sV400491567
p102
I40
sV400491560
p103
I40
sV400491561
p104
I42
sV400491562
p105
I32
sV400491563
p106
I46
sV400491568
p107
I42
sV400491569
p108
I38
sV400491588
p109
I48
sV400491589
p110
I48
sV400491582
p111
I38
sV400491583
p112
I43
sV400491580
p113
I49
sV400491581
p114
I44
sV400491586
p115
I43
sV400491587
p116
I38
sV400491584
p117
I46
sV400491585
p118
I38
sV400278158
p119
I41
sV400278159
p120
I44
sV400278152
p121
I42
sV400278153
p122
I40
sV400278150
p123
I38
sV400278151
p124
I51
sV400278156
p125
I43
sV400278157
p126
I40
sV400278154
p127
I43
sV400278155
p128
I47
sV400278839
p129
I44
sV400278838
p130
I47
sV400278835
p131
I45
sV400278834
p132
I37
sV400278837
p133
I49
sV400278836
p134
I46
sV400278831
p135
I42
sV400278830
p136
I47
sV400278833
p137
I40
sV400278832
p138
I44
sV400277931
p139
I51
sV400277930
p140
I44
sV400277933
p141
I32
sV400277932
p142
I39
sV400277935
p143
I36
sV400277934
p144
I37
sV400277937
p145
I34
sV400277936
p146
I42
sV400277939
p147
I39
sV400277938
p148
I49
sV400277759
p149
I49
sV400277758
p150
I41
sV400278702
p151
I46
sV400277751
p152
I46
sV400277750
p153
I46
sV400277753
p154
I42
sV400277752
p155
I44
sV400277755
p156
I40
sV400277754
p157
I48
sV400277757
p158
I50
sV400277756
p159
I39
sV400278252
p160
I37
sV400278255
p161
I31
sV400278254
p162
I42
sV400278941
p163
I38
sV400278940
p164
I37
sV400278943
p165
I44
sV400278942
p166
I44
sV400278945
p167
I47
sV400278944
p168
I44
sV400278947
p169
I51
sV400278946
p170
I43
sV400278949
p171
I49
sV400278948
p172
I45
sV400278256
p173
I37
sV400488919
p174
I47
sV400488918
p175
I44
sV400488917
p176
I36
sV400488916
p177
I46
sV400488915
p178
I44
sV400488914
p179
I44
sV400488913
p180
I42
sV400488912
p181
I42
sV400488911
p182
I37
sV400488910
p183
I44
sV400489082
p184
I42
sV400489083
p185
I46
sV400489080
p186
I36
sV400489081
p187
I47
sV400489086
p188
I41
sV400489087
p189
I49
sV400489084
p190
I38
sV400489085
p191
I39
sV400489088
p192
I45
sV400489089
p193
I48
sV400464455
p194
I40
sV400464456
p195
I46
sV400464459
p196
I42
sV400459960
p197
I49
sV400459961
p198
I36
sV400459962
p199
I38
sV400459963
p200
I38
sV400278307
p201
I38
sV400278306
p202
I41
sV400278305
p203
I38
sV400278304
p204
I38
sV400278303
p205
I42
sV400278302
p206
I46
sV400278301
p207
I49
sV400278300
p208
I33
sV400459982
p209
I38
sV400459980
p210
I36
sV400459981
p211
I44
sV400459986
p212
I37
sV400459987
p213
I42
sV400459984
p214
I45
sV400459985
p215
I40
sV400278233
p216
I44
sV400278232
p217
I43
sV400278231
p218
I41
sV400278230
p219
I46
sV400278237
p220
I43
sV400278236
p221
I42
sV400278235
p222
I42
sV400278234
p223
I54
sV400278239
p224
I50
sV400278238
p225
I42
sV400278019
p226
I48
sV400278018
p227
I46
sV400278549
p228
I45
sV400278548
p229
I47
sV400278013
p230
I45
sV400278012
p231
I40
sV400278011
p232
I42
sV400278010
p233
I38
sV400278017
p234
I45
sV400278016
p235
I38
sV400278015
p236
I44
sV400278542
p237
I48
sV400278789
p238
I49
sV400278788
p239
I44
sV400278783
p240
I40
sV400278782
p241
I40
sV400278781
p242
I42
sV400278780
p243
I40
sV400278787
p244
I43
sV400278786
p245
I46
sV400278785
p246
I37
sV400278784
p247
I46
sV400278169
p248
I49
sV400278168
p249
I43
sV400278167
p250
I37
sV400278166
p251
I37
sV400278165
p252
I45
sV400278164
p253
I46
sV400278163
p254
I46
sV400278162
p255
I34
sV400278161
p256
I46
sV400278160
p257
I39
sV400278499
p258
I44
sV400278498
p259
I38
sV400278497
p260
I45
sV400278496
p261
I42
sV400278495
p262
I46
sV400278494
p263
I48
sV400278493
p264
I42
sV400278492
p265
I41
sV400278491
p266
I41
sV400278490
p267
I40
sV400278004
p268
I42
sV400278005
p269
I39
sV400278006
p270
I44
sV400278007
p271
I41
sV400278000
p272
I45
sV400278001
p273
I40
sV400278002
p274
I43
sV400278003
p275
I42
sV400278828
p276
I47
sV400278829
p277
I39
sV400278826
p278
I39
sV400278827
p279
I39
sV400278824
p280
I45
sV400278825
p281
I42
sV400278822
p282
I43
sV400278823
p283
I39
sV400278820
p284
I37
sV400278821
p285
I40
sV400464337
p286
I36
sV400464339
p287
I45
sV400464338
p288
I38
sV400277922
p289
I38
sV400277923
p290
I39
sV400277920
p291
I38
sV400277921
p292
I37
sV400277926
p293
I46
sV400277927
p294
I42
sV400277924
p295
I43
sV400277925
p296
I36
sV400277928
p297
I45
sV400277929
p298
I43
sV400277748
p299
I45
sV400277749
p300
I46
sV400277742
p301
I44
sV400277743
p302
I51
sV400277740
p303
I40
sV400277741
p304
I40
sV400277746
p305
I42
sV400277747
p306
I43
sV400277744
p307
I46
sV400277745
p308
I39
sV400278950
p309
I46
sV400488900
p310
I45
sV400488901
p311
I34
sV400488902
p312
I51
sV400488903
p313
I39
sV400488904
p314
I44
sV400488905
p315
I48
sV400488906
p316
I45
sV400488907
p317
I47
sV400488908
p318
I40
sV400488909
p319
I42
sV400488888
p320
I42
sV400277983
p321
I46
sV400488892
p322
I39
sV400488893
p323
I42
sV400488890
p324
I46
sV400488891
p325
I45
sV400488896
p326
I44
sV400488897
p327
I47
sV400488894
p328
I44
sV400488895
p329
I50
sV400278224
p330
I41
sV400278225
p331
I35
sV400278226
p332
I43
sV400278227
p333
I38
sV400278220
p334
I43
sV400278221
p335
I42
sV400278222
p336
I39
sV400278223
p337
I47
sV400278228
p338
I41
sV400278229
p339
I38
sV400488899
p340
I38
sV400278008
p341
I44
sV400278009
p342
I37
sV400278558
p343
I55
sV400278559
p344
I41
sV400278556
p345
I44
sV400278557
p346
I39
sV400278554
p347
I45
sV400278555
p348
I47
sV400278552
p349
I45
sV400278553
p350
I36
sV400278550
p351
I45
sV400278551
p352
I40
sV400278798
p353
I43
sV400278799
p354
I40
sV400278794
p355
I43
sV400278795
p356
I50
sV400278796
p357
I43
sV400278797
p358
I39
sV400278790
p359
I44
sV400278791
p360
I41
sV400278792
p361
I45
sV400278793
p362
I44
sV400278318
p363
I45
sV400278319
p364
I44
sV400278310
p365
I48
sV400278311
p366
I39
sV400278312
p367
I45
sV400278313
p368
I45
sV400278314
p369
I33
sV400278315
p370
I40
sV400278316
p371
I45
sV400278317
p372
I36
sV400278170
p373
I43
sV400278171
p374
I41
sV400278172
p375
I42
sV400278173
p376
I44
sV400278174
p377
I38
sV400278175
p378
I39
sV400278176
p379
I42
sV400278177
p380
I33
sV400278178
p381
I50
sV400278179
p382
I43
sV400278480
p383
I44
sV400278481
p384
I41
sV400278482
p385
I40
sV400278483
p386
I44
sV400278484
p387
I44
sV400278485
p388
I42
sV400278486
p389
I42
sV400278487
p390
I41
sV400278488
p391
I48
sV400278489
p392
I40
sV400436572
p393
I57
sV400278813
p394
I40
sV400278812
p395
I42
sV400278811
p396
I40
sV400278810
p397
I42
sV400278817
p398
I34
sV400278816
p399
I36
sV400278815
p400
I41
sV400278814
p401
I43
sV400278819
p402
I42
sV400278818
p403
I43
sV400277917
p404
I44
sV400277916
p405
I40
sV400277915
p406
I45
sV400277914
p407
I43
sV400277913
p408
I43
sV400277912
p409
I36
sV400277911
p410
I43
sV400277910
p411
I42
sV400277919
p412
I46
sV400277918
p413
I38
sV400277779
p414
I41
sV400277778
p415
I42
sV400277777
p416
I41
sV400277776
p417
I44
sV400277775
p418
I39
sV400277774
p419
I44
sV400277773
p420
I44
sV400277772
p421
I38
sV400277771
p422
I37
sV400277770
p423
I46
sV400488975
p424
I39
sV400488974
p425
I43
sV400488977
p426
I44
sV400488976
p427
I36
sV400488971
p428
I42
sV400488970
p429
I45
sV400488973
p430
I45
sV400488972
p431
I46
sV400488979
p432
I47
sV400488978
p433
I44
sV400278444
p434
I37
sV400278445
p435
I44
sV400278330
p436
I36
sV400278447
p437
I39
sV400278336
p438
I43
sV400278441
p439
I55
sV400278334
p440
I45
sV400278335
p441
I42
sV400416028
p442
I45
sV400278563
p443
I44
sV400278562
p444
I42
sV400278561
p445
I42
sV400278560
p446
I42
sV400278567
p447
I42
sV400278566
p448
I42
sV400278565
p449
I40
sV400278564
p450
I42
sV400278569
p451
I39
sV400278568
p452
I41
sV400278761
p453
I42
sV400278760
p454
I44
sV400278763
p455
I41
sV400278762
p456
I41
sV400278765
p457
I39
sV400278764
p458
I47
sV400278767
p459
I48
sV400278766
p460
I46
sV400278769
p461
I37
sV400278768
p462
I40
sV400278369
p463
I52
sV400278368
p464
I40
sV400278365
p465
I42
sV400278364
p466
I40
sV400278367
p467
I54
sV400278366
p468
I44
sV400278361
p469
I43
sV400278360
p470
I46
sV400278363
p471
I41
sV400278362
p472
I37
sV400278105
p473
I41
sV400278104
p474
I45
sV400278107
p475
I44
sV400278106
p476
I45
sV400278101
p477
I45
sV400278100
p478
I38
sV400278103
p479
I45
sV400278102
p480
I38
sV400278109
p481
I43
sV400278108
p482
I43
sV400277989
p483
I47
sV400278619
p484
I39
sV400278618
p485
I47
sV400278611
p486
I43
sV400278610
p487
I44
sV400278613
p488
I42
sV400278612
p489
I32
sV400278615
p490
I43
sV400278614
p491
I47
sV400278617
p492
I46
sV400278616
p493
I48
sV400278589
p494
I49
sV400278588
p495
I39
sV400278581
p496
I42
sV400278580
p497
I43
sV400278583
p498
I42
sV400278582
p499
I44
sV400278585
p500
I39
sV400278584
p501
I37
sV400278587
p502
I43
sV400278586
p503
I42
sV400400562
p504
I40
sV400400563
p505
I37
sV400400560
p506
I43
sV400400561
p507
I40
sV400278804
p508
I41
sV400278805
p509
I40
sV400278806
p510
I42
sV400278807
p511
I41
sV400278800
p512
I33
sV400278801
p513
I47
sV400278802
p514
I39
sV400278803
p515
I44
sV400278808
p516
I44
sV400278809
p517
I35
sV400277908
p518
I48
sV400277909
p519
I40
sV400488983
p520
I43
sV400277900
p521
I43
sV400277901
p522
I41
sV400277902
p523
I42
sV400277903
p524
I41
sV400277904
p525
I34
sV400277905
p526
I38
sV400277906
p527
I47
sV400277907
p528
I41
sV400277760
p529
I40
sV400277761
p530
I38
sV400277762
p531
I50
sV400277764
p532
I45
sV400277765
p533
I49
sV400277766
p534
I47
sV400277767
p535
I44
sV400277768
p536
I43
sV400277769
p537
I44
sV400277859
p538
I46
sV400488966
p539
I37
sV400488967
p540
I39
sV400488964
p541
I42
sV400488965
p542
I43
sV400488962
p543
I36
sV400488963
p544
I48
sV400488960
p545
I43
sV400488961
p546
I44
sV400488968
p547
I44
sV400488969
p548
I44
sV400278437
p549
I39
sV400278436
p550
I43
sV400278387
p551
I47
sV400278386
p552
I43
sV400278257
p553
I51
sV400489189
p554
I39
sV400489188
p555
I41
sV400489183
p556
I40
sV400489182
p557
I47
sV400489181
p558
I41
sV400489180
p559
I45
sV400489187
p560
I41
sV400489186
p561
I43
sV400489185
p562
I47
sV400489184
p563
I38
sV400278574
p564
I39
sV400278575
p565
I45
sV400278576
p566
I46
sV400278577
p567
I41
sV400278570
p568
I43
sV400278571
p569
I43
sV400278572
p570
I45
sV400278573
p571
I41
sV400278578
p572
I36
sV400278579
p573
I41
sV400278772
p574
I48
sV400278773
p575
I44
sV400278770
p576
I39
sV400278771
p577
I38
sV400278776
p578
I38
sV400278777
p579
I44
sV400278774
p580
I42
sV400278775
p581
I37
sV400278778
p582
I49
sV400278779
p583
I42
sV400278378
p584
I36
sV400278379
p585
I49
sV400278376
p586
I38
sV400278377
p587
I48
sV400278374
p588
I42
sV400278375
p589
I45
sV400278372
p590
I45
sV400278373
p591
I48
sV400278370
p592
I34
sV400278371
p593
I39
sV400278116
p594
I46
sV400278117
p595
I43
sV400278114
p596
I47
sV400278115
p597
I45
sV400278112
p598
I44
sV400278113
p599
I35
sV400278110
p600
I48
sV400278111
p601
I38
sV400488878
p602
I38
sV400278118
p603
I45
sV400278119
p604
I46
sV400491494
p605
I39
sV400491495
p606
I43
sV400491496
p607
I38
sV400491497
p608
I49
sV400491499
p609
I48
sV400488874
p610
I45
sV400488875
p611
I43
sV400488876
p612
I48
sV400488877
p613
I45
sV400278608
p614
I38
sV400278609
p615
I38
sV400278602
p616
I46
sV400278603
p617
I39
sV400278600
p618
I35
sV400278601
p619
I41
sV400278606
p620
I46
sV400278607
p621
I39
sV400278604
p622
I42
sV400278605
p623
I48
sV400278598
p624
I47
sV400278599
p625
I47
sV400278592
p626
I40
sV400278593
p627
I43
sV400278590
p628
I42
sV400278591
p629
I45
sV400278596
p630
I48
sV400278597
p631
I37
sV400278594
p632
I41
sV400278595
p633
I48
sV400400559
p634
I36
sV400400558
p635
I39
sV400400557
p636
I40
sV400400556
p637
I42
sV400400555
p638
I44
sV400400554
p639
I39
sV400400553
p640
I39
sV400400552
p641
I45
sV400400551
p642
I42
sV400400550
p643
I44
sV400277979
p644
I44
sV400277978
p645
I44
sV400277975
p646
I40
sV400277974
p647
I41
sV400277977
p648
I44
sV400277976
p649
I47
sV400277971
p650
I44
sV400277970
p651
I44
sV400277973
p652
I38
sV400277972
p653
I41
sV400278909
p654
I43
sV400278908
p655
I41
sV400278905
p656
I42
sV400278904
p657
I40
sV400278907
p658
I39
sV400278906
p659
I45
sV400278901
p660
I39
sV400278900
p661
I42
sV400278903
p662
I45
sV400278902
p663
I39
sV400488959
p664
I43
sV400488958
p665
I42
sV400488953
p666
I50
sV400488952
p667
I39
sV400488951
p668
I45
sV400488950
p669
I50
sV400488957
p670
I40
sV400488956
p671
I45
sV400488955
p672
I38
sV400488954
p673
I45
sV400277801
p674
I42
sV400277800
p675
I44
sV400277803
p676
I38
sV400277802
p677
I44
sV400277805
p678
I42
sV400277804
p679
I45
sV400277807
p680
I44
sV400277806
p681
I43
sV400277809
p682
I50
sV400277808
p683
I38
sV400489198
p684
I41
sV400489199
p685
I48
sV400489194
p686
I44
sV400489195
p687
I48
sV400489196
p688
I40
sV400489197
p689
I38
sV400489190
p690
I45
sV400489191
p691
I45
sV400489192
p692
I42
sV400489193
p693
I41
sV400278744
p694
I45
sV400489212
p695
I46
sV400278747
p696
I36
sV400278294
p697
I41
sV400278297
p698
I48
sV400278296
p699
I37
sV400278743
p700
I40
sV400278742
p701
I41
sV400278741
p702
I47
sV400278740
p703
I39
sV400278299
p704
I43
sV400278298
p705
I41
sV400278749
p706
I40
sV400278748
p707
I40
sV400278295
p708
I45
sV400278746
p709
I40
sV400278745
p710
I46
sV400278343
p711
I37
sV400278342
p712
I47
sV400278341
p713
I40
sV400278340
p714
I41
sV400278347
p715
I39
sV400278346
p716
I50
sV400278345
p717
I40
sV400278344
p718
I40
sV400278291
p719
I44
sV400278349
p720
I39
sV400278348
p721
I36
sV400278290
p722
I43
sV400278129
p723
I47
sV400278128
p724
I43
sV400278293
p725
I41
sV400278123
p726
I43
sV400278122
p727
I46
sV400278121
p728
I41
sV400278292
p729
I43
sV400278127
p730
I38
sV400278126
p731
I48
sV400278125
p732
I40
sV400278124
p733
I43
sV400278639
p734
I41
sV400278638
p735
I46
sV400278637
p736
I41
sV400278636
p737
I42
sV400278635
p738
I41
sV400278634
p739
I46
sV400278633
p740
I44
sV400278632
p741
I45
sV400278631
p742
I49
sV400278630
p743
I46
sV400400543
p744
I34
sV400400544
p745
I46
sV400400545
p746
I38
sV400400546
p747
I39
sV400400547
p748
I37
sV400400548
p749
I50
sV400400549
p750
I42
sV400277968
p751
I48
sV400277969
p752
I41
sV400277966
p753
I49
sV400277967
p754
I41
sV400277964
p755
I44
sV400277965
p756
I42
sV400277962
p757
I36
sV400277963
p758
I38
sV400277960
p759
I47
sV400277961
p760
I45
sV400440940
p761
I35
sV400278918
p762
I44
sV400278919
p763
I45
sV400278916
p764
I38
sV400278917
p765
I44
sV400278914
p766
I39
sV400278915
p767
I42
sV400278912
p768
I41
sV400278913
p769
I40
sV400278910
p770
I46
sV400278911
p771
I44
sV400488948
p772
I48
sV400488949
p773
I48
sV400488944
p774
I51
sV400488945
p775
I48
sV400488946
p776
I49
sV400488947
p777
I43
sV400488940
p778
I47
sV400488941
p779
I44
sV400488942
p780
I50
sV400488943
p781
I40
sV400277812
p782
I45
sV400277813
p783
I36
sV400277810
p784
I47
sV400277811
p785
I34
sV400277816
p786
I44
sV400277817
p787
I36
sV400277814
p788
I41
sV400277815
p789
I33
sV400277818
p790
I43
sV400277819
p791
I43
sV400278120
p792
I40
sV400489161
p793
I44
sV400489160
p794
I45
sV400489163
p795
I48
sV400489162
p796
I39
sV400489165
p797
I45
sV400489164
p798
I43
sV400489167
p799
I37
sV400489166
p800
I41
sV400489169
p801
I43
sV400489168
p802
I40
sV400278040
p803
I46
sV400278041
p804
I41
sV400278510
p805
I44
sV400278511
p806
I47
sV400278516
p807
I43
sV400278517
p808
I45
sV400278046
p809
I39
sV400278515
p810
I45
sV400489019
p811
I42
sV400489018
p812
I47
sV400489011
p813
I40
sV400489010
p814
I47
sV400489013
p815
I50
sV400489012
p816
I41
sV400489015
p817
I47
sV400489014
p818
I46
sV400489017
p819
I45
sV400489016
p820
I48
sV400466597
p821
I38
sV400466596
p822
I38
sV400466595
p823
I35
sV400466594
p824
I37
sV400466599
p825
I39
sV400466598
p826
I37
sV400278758
p827
I37
sV400278759
p828
I44
sV400278750
p829
I43
sV400278751
p830
I41
sV400278752
p831
I42
sV400278753
p832
I38
sV400278754
p833
I39
sV400278755
p834
I38
sV400278756
p835
I47
sV400278757
p836
I46
sV400278286
p837
I49
sV400278287
p838
I42
sV400278284
p839
I43
sV400278285
p840
I44
sV400278282
p841
I41
sV400278283
p842
I43
sV400278280
p843
I43
sV400278281
p844
I40
sV400278288
p845
I43
sV400278289
p846
I45
sV400278354
p847
I37
sV400278355
p848
I45
sV400278356
p849
I48
sV400278357
p850
I46
sV400278350
p851
I45
sV400278351
p852
I35
sV400278352
p853
I43
sV400278353
p854
I43
sV400278358
p855
I38
sV400278359
p856
I46
sV400278138
p857
I32
sV400278139
p858
I49
sV400278134
p859
I44
sV400278135
p860
I42
sV400278136
p861
I41
sV400278137
p862
I44
sV400278130
p863
I45
sV400278131
p864
I43
sV400278132
p865
I36
sV400464191
p866
I44
sV400464192
p867
I45
sV400278620
p868
I46
sV400278621
p869
I47
sV400278622
p870
I47
sV400278623
p871
I44
sV400278624
p872
I35
sV400278625
p873
I46
sV400278626
p874
I38
sV400278627
p875
I34
sV400278628
p876
I44
sV400278629
p877
I44
sV400277953
p878
I37
sV400277952
p879
I44
sV400277951
p880
I42
sV400277950
p881
I54
sV400277957
p882
I43
sV400277956
p883
I38
sV400277955
p884
I40
sV400277954
p885
I39
sV400277959
p886
I44
sV400277958
p887
I41
sV400278714
p888
I42
sV400278715
p889
I44
sV400278716
p890
I47
sV400278923
p891
I41
sV400278922
p892
I40
sV400278921
p893
I40
sV400278920
p894
I46
sV400278927
p895
I47
sV400278926
p896
I39
sV400278925
p897
I38
sV400278924
p898
I38
sV400278710
p899
I44
sV400278929
p900
I43
sV400278928
p901
I38
sV400278711
p902
I42
sV400278712
p903
I46
sV400278713
p904
I42
sV400277827
p905
I37
sV400277826
p906
I46
sV400277825
p907
I35
sV400277824
p908
I43
sV400277823
p909
I48
sV400277822
p910
I34
sV400277821
p911
I46
sV400277820
p912
I47
sV400277829
p913
I44
sV400277828
p914
I42
sV400277739
p915
I38
sV400277738
p916
I50
sV400277732
p917
I46
sV400277731
p918
I51
sV400277737
p919
I42
sV400277736
p920
I46
sV400277735
p921
I36
sV400277734
p922
I40
sV400489172
p923
I40
sV400489173
p924
I41
sV400489170
p925
I46
sV400489171
p926
I41
sV400489176
p927
I42
sV400489177
p928
I46
sV400489174
p929
I42
sV400489175
p930
I45
sV400489178
p931
I49
sV400489179
p932
I48
sV400431053
p933
I42
sV400489008
p934
I42
sV400489009
p935
I40
sV400489002
p936
I41
sV400489003
p937
I42
sV400489000
p938
I38
sV400489001
p939
I45
sV400489006
p940
I47
sV400489007
p941
I44
sV400489004
p942
I51
sV400489005
p943
I48
sV400278729
p944
I41
sV400278728
p945
I44
sV400278725
p946
I44
sV400278724
p947
I47
sV400278727
p948
I43
sV400278726
p949
I43
sV400278721
p950
I36
sV400278720
p951
I44
sV400278723
p952
I38
sV400278722
p953
I51
sV400466474
p954
I35
sV400466475
p955
I40
sV400466476
p956
I44
sV400466477
p957
I42
sV400278431
p958
I40
sV400278430
p959
I44
sV400278433
p960
I42
sV400278432
p961
I42
sV400278435
p962
I38
sV400278434
p963
I34
sV400278389
p964
I44
sV400278388
p965
I51
sV400278439
p966
I48
sV400278438
p967
I49
sV400278385
p968
I45
sV400278384
p969
I43
sV400278383
p970
I45
sV400278382
p971
I39
sV400278381
p972
I43
sV400278380
p973
I36
sV400278655
p974
I41
sV400278654
p975
I39
sV400278657
p976
I45
sV400278656
p977
I42
sV400278651
p978
I41
sV400278650
p979
I41
sV400278653
p980
I42
sV400278652
p981
I41
sV400278659
p982
I45
sV400278658
p983
I37
sV400491511
p984
I40
sV400491510
p985
I45
sV400491513
p986
I32
sV400491512
p987
I38
sV400491515
p988
I41
sV400491514
p989
I49
sV400491516
p990
I38
sV400491519
p991
I39
sV400491518
p992
I46
sV400464357
p993
I35
sV400464356
p994
I38
sV400464359
p995
I37
sV400277944
p996
I42
sV400277945
p997
I37
sV400277946
p998
I47
sV400277947
p999
I40
sV400277940
p1000
I44
sV400277941
p1001
I46
sV400277942
p1002
I42
sV400277943
p1003
I44
sV400277948
p1004
I41
sV400277949
p1005
I41
sV400278935
p1006
I42
sV400278936
p1007
I43
sV400278937
p1008
I48
sV400278930
p1009
I41
sV400278931
p1010
I49
sV400278932
p1011
I44
sV400278933
p1012
I49
sV400278938
p1013
I37
sV400278939
p1014
I36
sV400277838
p1015
I42
sV400277839
p1016
I45
sV400277830
p1017
I40
sV400277831
p1018
I42
sV400277832
p1019
I43
sV400277833
p1020
I47
sV400277834
p1021
I43
sV400277835
p1022
I41
sV400277836
p1023
I43
sV400277837
p1024
I42
sV400467334
p1025
I40
sV400467335
p1026
I39
sV400467336
p1027
I35
sV400467337
p1028
I39
sV400467338
p1029
I40
sV400467339
p1030
I41
sV400277728
p1031
I42
sV400277729
p1032
I47
sV400277724
p1033
I45
sV400277725
p1034
I50
sV400277726
p1035
I42
sV400277727
p1036
I39
sV400277721
p1037
I51
sV400277722
p1038
I42
sV400277723
p1039
I46
sV400489147
p1040
I47
sV400489146
p1041
I50
sV400489145
p1042
I40
sV400489144
p1043
I48
sV400489143
p1044
I47
sV400489142
p1045
I53
sV400489141
p1046
I44
sV400489140
p1047
I46
sV400467195
p1048
I38
sV400489149
p1049
I48
sV400489039
p1050
I44
sV400489038
p1051
I39
sV400489037
p1052
I44
sV400489036
p1053
I43
sV400489035
p1054
I46
sV400489034
p1055
I34
sV400489033
p1056
I39
sV400489032
p1057
I49
sV400489031
p1058
I40
sV400489030
p1059
I39
sV400278738
p1060
I44
sV400278739
p1061
I44
sV400278736
p1062
I47
sV400278737
p1063
I37
sV400278734
p1064
I42
sV400278735
p1065
I46
sV400278732
p1066
I38
sV400278733
p1067
I36
sV400278730
p1068
I36
sV400278731
p1069
I52
sV400277793
p1070
I42
sV400277792
p1071
I40
sV400488898
p1072
I48
sV400278390
p1073
I52
sV400278423
p1074
I46
sV400278420
p1075
I32
sV400278421
p1076
I51
sV400278394
p1077
I37
sV400278395
p1078
I41
sV400278396
p1079
I43
sV400278397
p1080
I35
sV400278398
p1081
I36
sV400278399
p1082
I42
sV400278428
p1083
I46
sV400278429
p1084
I43
sV400278646
p1085
I42
sV400278647
p1086
I39
sV400278644
p1087
I48
sV400278645
p1088
I46
sV400278642
p1089
I43
sV400278643
p1090
I45
sV400278640
p1091
I37
sV400278641
p1092
I41
sV400278648
p1093
I37
sV400278649
p1094
I39
sV400491503
p1095
I43
sV400491500
p1096
I33
sV400491501
p1097
I41
sV400491506
p1098
I38
sV400491507
p1099
I37
sV400491504
p1100
I38
sV400491505
p1101
I37
sV400491508
p1102
I38
sV400491509
p1103
I39
sV400464340
p1104
I40
sV400464341
p1105
I41
sV400277999
p1106
I43
sV400277998
p1107
I45
sV400277997
p1108
I47
sV400277996
p1109
I45
sV400277995
p1110
I39
sV400277994
p1111
I41
sV400277993
p1112
I45
sV400277992
p1113
I44
sV400277991
p1114
I47
sV400277990
p1115
I49
sV400488997
p1116
I43
sV400488996
p1117
I36
sV400488995
p1118
I48
sV400488994
p1119
I38
sV400277849
p1120
I43
sV400277848
p1121
I44
sV400488991
p1122
I53
sV400488990
p1123
I42
sV400277845
p1124
I42
sV400277844
p1125
I40
sV400277847
p1126
I40
sV400277846
p1127
I39
sV400277841
p1128
I42
sV400277840
p1129
I45
sV400277843
p1130
I40
sV400277842
p1131
I43
sV400278899
p1132
I46
sV400278898
p1133
I42
sV400278893
p1134
I46
sV400278892
p1135
I45
sV400278891
p1136
I42
sV400278890
p1137
I42
sV400278897
p1138
I46
sV400278896
p1139
I38
sV400278895
p1140
I49
sV400278894
p1141
I48
sV400489158
p1142
I40
sV400489159
p1143
I41
sV400489150
p1144
I43
sV400489151
p1145
I40
sV400489152
p1146
I40
sV400489153
p1147
I53
sV400489154
p1148
I40
sV400489155
p1149
I48
sV400489156
p1150
I47
sV400489157
p1151
I46
sV400488881
p1152
I38
sV400488883
p1153
I45
sV400278309
p1154
I38
sV400278308
p1155
I40
sV400489020
p1156
I44
sV400489021
p1157
I44
sV400489023
p1158
I37
sV400489024
p1159
I47
sV400489025
p1160
I48
sV400489026
p1161
I49
sV400489027
p1162
I43
sV400489028
p1163
I46
sV400489029
p1164
I43
sV400278251
p1165
I44
sV400278250
p1166
I46
sV400278253
p1167
I38
sV400278700
p1168
I38
sV400278707
p1169
I39
sV400278706
p1170
I51
sV400278705
p1171
I41
sV400278704
p1172
I46
sV400278259
p1173
I47
sV400278258
p1174
I49
sV400278709
p1175
I40
sV400278708
p1176
I52
sV400278417
p1177
I46
sV400278416
p1178
I46
sV400278415
p1179
I44
sV400278414
p1180
I50
sV400278413
p1181
I42
sV400278412
p1182
I37
sV400278411
p1183
I44
sV400278410
p1184
I45
sV400278419
p1185
I43
sV400278418
p1186
I43
sV400278093
p1187
I49
sV400278092
p1188
I40
sV400278091
p1189
I43
sV400278090
p1190
I41
sV400278097
p1191
I44
sV400278096
p1192
I42
sV400278095
p1193
I47
sV400278094
p1194
I50
sV400278099
p1195
I47
sV400278098
p1196
I47
sV400278679
p1197
I36
sV400278678
p1198
I37
sV400278673
p1199
I46
sV400278672
p1200
I43
sV400278671
p1201
I43
sV400278670
p1202
I47
sV400278677
p1203
I51
sV400278676
p1204
I41
sV400278675
p1205
I39
sV400278674
p1206
I46
sV400278079
p1207
I45
sV400278078
p1208
I44
sV400278071
p1209
I43
sV400278070
p1210
I49
sV400278073
p1211
I39
sV400278072
p1212
I42
sV400278075
p1213
I40
sV400278074
p1214
I38
sV400278077
p1215
I38
sV400278076
p1216
I36
sV400491537
p1217
I41
sV400491536
p1218
I40
sV400491535
p1219
I40
sV400491534
p1220
I35
sV400491533
p1221
I40
sV400491532
p1222
I46
sV400491531
p1223
I42
sV400491530
p1224
I44
sV400491539
p1225
I39
sV400491538
p1226
I47
sV400278545
p1227
I40
sV400278544
p1228
I45
sV400278547
p1229
I39
sV400277980
p1230
I43
sV400277981
p1231
I36
sV400277982
p1232
I34
sV400278546
p1233
I41
sV400277984
p1234
I48
sV400277985
p1235
I42
sV400277986
p1236
I49
sV400277987
p1237
I48
sV400277988
p1238
I45
sV400278541
p1239
I45
sV400278540
p1240
I41
sV400488988
p1241
I44
sV400488989
p1242
I42
sV400278543
p1243
I48
sV400488980
p1244
I38
sV400488981
p1245
I43
sV400488982
p1246
I41
sV400278014
p1247
I38
sV400488984
p1248
I47
sV400488985
p1249
I42
sV400488986
p1250
I40
sV400488987
p1251
I36
sV400278422
p1252
I39
sV400277858
p1253
I40
sV400278391
p1254
I38
sV400277856
p1255
I41
sV400277857
p1256
I38
sV400277854
p1257
I43
sV400277855
p1258
I44
sV400277852
p1259
I46
sV400277853
p1260
I40
sV400277850
p1261
I45
sV400277851
p1262
I40
sV400278393
p1263
I43
sV400278426
p1264
I40
sV400278427
p1265
I35
sV400278424
p1266
I44
sV400278425
p1267
I42
sV400278888
p1268
I42
sV400488879
p1269
I43
sV400278884
p1270
I51
sV400278885
p1271
I35
sV400278886
p1272
I50
sV400278887
p1273
I40
sV400278880
p1274
I41
sV400278881
p1275
I44
sV400278882
p1276
I43
sV400278883
p1277
I43
sV400489129
p1278
I46
sV400489128
p1279
I47
sV400489125
p1280
I35
sV400489124
p1281
I39
sV400489127
p1282
I42
sV400489126
p1283
I44
sV400489121
p1284
I49
sV400489120
p1285
I44
sV400489123
p1286
I45
sV400489122
p1287
I47
sV400489055
p1288
I51
sV400489054
p1289
I40
sV400489057
p1290
I42
sV400489056
p1291
I39
sV400489051
p1292
I42
sV400489050
p1293
I43
sV400489053
p1294
I39
sV400489052
p1295
I39
sV400489059
p1296
I40
sV400489058
p1297
I45
sV400278242
p1298
I40
sV400278243
p1299
I42
sV400278240
p1300
I46
sV400278717
p1301
I41
sV400278246
p1302
I42
sV400278247
p1303
I40
sV400278244
p1304
I42
sV400278245
p1305
I45
sV400278248
p1306
I41
sV400278249
p1307
I46
sV400278718
p1308
I42
sV400278719
p1309
I44
sV400277799
p1310
I49
sV400278408
p1311
I41
sV400278409
p1312
I42
sV400488880
p1313
I47
sV400278400
p1314
I37
sV400278401
p1315
I38
sV400278402
p1316
I39
sV400278403
p1317
I45
sV400278404
p1318
I42
sV400278405
p1319
I36
sV400278406
p1320
I49
sV400278407
p1321
I40
sV400488882
p1322
I44
sV400488885
p1323
I37
sV400488884
p1324
I39
sV400488887
p1325
I45
sV400488886
p1326
I45
sV400278084
p1327
I51
sV400278085
p1328
I42
sV400278086
p1329
I36
sV400278087
p1330
I52
sV400278080
p1331
I46
sV400278081
p1332
I39
sV400278082
p1333
I40
sV400278083
p1334
I52
sV400278088
p1335
I41
sV400278089
p1336
I45
sV400278668
p1337
I38
sV400278669
p1338
I45
sV400278664
p1339
I41
sV400278665
p1340
I42
sV400278666
p1341
I45
sV400278667
p1342
I39
sV400278660
p1343
I42
sV400278661
p1344
I48
sV400278662
p1345
I38
sV400278663
p1346
I45
sV400278068
p1347
I47
sV400278069
p1348
I40
sV400278062
p1349
I40
sV400278063
p1350
I42
sV400278060
p1351
I40
sV400278061
p1352
I36
sV400278066
p1353
I37
sV400278067
p1354
I43
sV400278064
p1355
I41
sV400278065
p1356
I42
sV400491528
p1357
I38
sV400491529
p1358
I40
sV400491520
p1359
I38
sV400491521
p1360
I40
sV400491522
p1361
I51
sV400491523
p1362
I36
sV400491524
p1363
I41
sV400491525
p1364
I38
sV400491526
p1365
I41
sV400491527
p1366
I43
sV400277798
p1367
I36
sV400277863
p1368
I44
sV400277862
p1369
I46
sV400277861
p1370
I41
sV400277860
p1371
I42
sV400277867
p1372
I39
sV400277866
p1373
I46
sV400277865
p1374
I38
sV400277864
p1375
I35
sV400277869
p1376
I41
sV400277868
p1377
I47
sV400277889
p1378
I34
sV400277888
p1379
I40
sV400277881
p1380
I41
sV400277880
p1381
I40
sV400277883
p1382
I43
sV400277882
p1383
I39
sV400277885
p1384
I45
sV400277884
p1385
I44
sV400277887
p1386
I41
sV400277886
p1387
I45
sV400278871
p1388
I41
sV400278870
p1389
I40
sV400278873
p1390
I38
sV400278872
p1391
I41
sV400278875
p1392
I47
sV400278874
p1393
I48
sV400278877
p1394
I41
sV400278876
p1395
I42
sV400488889
p1396
I44
sV400278878
p1397
I43
sV400489138
p1398
I46
sV400489139
p1399
I40
sV400489136
p1400
I43
sV400489137
p1401
I46
sV400489134
p1402
I40
sV400489135
p1403
I41
sV400489132
p1404
I44
sV400489133
p1405
I41
sV400489130
p1406
I46
sV400489131
p1407
I40
sV400489222
p1408
I47
sV400489223
p1409
I40
sV400489220
p1410
I51
sV400489221
p1411
I46
sV400489226
p1412
I47
sV400489227
p1413
I39
sV400489224
p1414
I47
sV400489225
p1415
I43
sV400489228
p1416
I41
sV400278321
p1417
I46
sV400278320
p1418
I51
sV400278323
p1419
I43
sV400489046
p1420
I43
sV400489047
p1421
I41
sV400489044
p1422
I42
sV400489045
p1423
I41
sV400489042
p1424
I43
sV400278889
p1425
I48
sV400489040
p1426
I44
sV400489041
p1427
I42
sV400278325
p1428
I47
sV400489048
p1429
I46
sV400489049
p1430
I38
sV400278455
p1431
I37
sV400278277
p1432
I44
sV400278276
p1433
I44
sV400278275
p1434
I42
sV400278274
p1435
I43
sV400278273
p1436
I46
sV400278272
p1437
I47
sV400278271
p1438
I41
sV400278270
p1439
I36
sV400278279
p1440
I36
sV400278278
p1441
I40
sV400278479
p1442
I37
sV400278478
p1443
I42
sV400278475
p1444
I38
sV400278474
p1445
I43
sV400278477
p1446
I37
sV400278476
p1447
I46
sV400278471
p1448
I41
sV400278470
p1449
I44
sV400278473
p1450
I36
sV400278472
p1451
I37
sV400278691
p1452
I49
sV400278690
p1453
I42
sV400278693
p1454
I40
sV400278692
p1455
I47
sV400278695
p1456
I44
sV400278694
p1457
I44
sV400278697
p1458
I48
sV400278696
p1459
I44
sV400278699
p1460
I55
sV400278698
p1461
I42
sV400278501
p1462
I43
sV400278500
p1463
I40
sV400278503
p1464
I38
sV400278502
p1465
I37
sV400278505
p1466
I48
sV400278504
p1467
I42
sV400278059
p1468
I43
sV400278058
p1469
I47
sV400278509
p1470
I35
sV400278508
p1471
I47
sV400278055
p1472
I43
sV400278054
p1473
I46
sV400278053
p1474
I41
sV400278052
p1475
I44
sV400278051
p1476
I43
sV400278050
p1477
I49
sV400491559
p1478
I36
sV400491558
p1479
I44
sV400491555
p1480
I44
sV400491554
p1481
I47
sV400491557
p1482
I48
sV400491556
p1483
I36
sV400491551
p1484
I37
sV400491550
p1485
I43
sV400491553
p1486
I40
sV400491552
p1487
I45
sV400278189
p1488
I49
sV400278188
p1489
I33
sV400278185
p1490
I39
sV400278184
p1491
I36
sV400278187
p1492
I44
sV400278186
p1493
I43
sV400278181
p1494
I47
sV400278180
p1495
I37
sV400278183
p1496
I47
sV400278182
p1497
I35
sV400491609
p1498
I44
sV400491608
p1499
I41
sV400491601
p1500
I36
sV400491600
p1501
I44
sV400491603
p1502
I36
sV400491602
p1503
I48
sV400491605
p1504
I34
sV400491604
p1505
I41
sV400491606
p1506
I37
sV400277874
p1507
I43
sV400277875
p1508
I37
sV400277876
p1509
I42
sV400277877
p1510
I40
sV400277870
p1511
I45
sV400277871
p1512
I51
sV400277872
p1513
I48
sV400277873
p1514
I46
sV400277878
p1515
I44
sV400277879
p1516
I43
sV400277898
p1517
I43
sV400277899
p1518
I39
sV400277892
p1519
I40
sV400277893
p1520
I43
sV400277890
p1521
I39
sV400277891
p1522
I44
sV400277896
p1523
I47
sV400277897
p1524
I42
sV400277894
p1525
I40
sV400277895
p1526
I39
sV400278862
p1527
I43
sV400278863
p1528
I47
sV400278860
p1529
I46
sV400278861
p1530
I40
sV400278866
p1531
I37
sV400278867
p1532
I49
sV400278864
p1533
I43
sV400278865
p1534
I44
sV400278868
p1535
I48
sV400278869
p1536
I40
sV400489103
p1537
I43
sV400489102
p1538
I39
sV400489101
p1539
I37
sV400489100
p1540
I40
sV400489107
p1541
I43
sV400489106
p1542
I46
sV400489105
p1543
I37
sV400489104
p1544
I43
sV400489109
p1545
I43
sV400489108
p1546
I40
sV400488993
p1547
I43
sV400488992
p1548
I45
sV400278035
p1549
I39
sV400278034
p1550
I43
sV400278037
p1551
I43
sV400278036
p1552
I49
sV400278879
p1553
I43
sV400278031
p1554
I44
sV400278030
p1555
I40
sV400278033
p1556
I37
sV400278032
p1557
I44
sV400489217
p1558
I44
sV400489216
p1559
I42
sV400489215
p1560
I44
sV400489214
p1561
I42
sV400489213
p1562
I40
sV400488999
p1563
I44
sV400489211
p1564
I46
sV400489210
p1565
I38
sV400488998
p1566
I44
sV400489219
p1567
I49
sV400489218
p1568
I39
sV400489079
p1569
I41
sV400489078
p1570
I39
sV400489073
p1571
I41
sV400489072
p1572
I48
sV400489071
p1573
I45
sV400489070
p1574
I47
sV400489077
p1575
I41
sV400489076
p1576
I46
sV400489075
p1577
I41
sV400489074
p1578
I44
sV400489043
p1579
I44
sV400464469
p1580
I41
sV400464468
p1581
I48
sV400464464
p1582
I38
sV400464467
p1583
I42
sV400464461
p1584
I37
sV400464460
p1585
I39
sV400464463
p1586
I39
sV400459959
p1587
I36
sV400459955
p1588
I39
sV400459951
p1589
I37
sV400459953
p1590
I40
sV400459952
p1591
I36
sV400466600
p1592
I43
sV400278468
p1593
I48
sV400278469
p1594
I49
sV400278466
p1595
I39
sV400278467
p1596
I45
sV400278464
p1597
I42
sV400278465
p1598
I40
sV400278462
p1599
I41
sV400278463
p1600
I45
sV400278460
p1601
I40
sV400278461
p1602
I41
sV400278268
p1603
I44
sV400278269
p1604
I47
sV400278260
p1605
I42
sV400278261
p1606
I46
sV400278262
p1607
I34
sV400278263
p1608
I51
sV400278264
p1609
I41
sV400278265
p1610
I36
sV400278266
p1611
I39
sV400278267
p1612
I39
sV400278682
p1613
I39
sV400278683
p1614
I46
sV400278680
p1615
I45
sV400278681
p1616
I42
sV400278686
p1617
I43
sV400278687
p1618
I45
sV400278684
p1619
I48
sV400278685
p1620
I36
sV400278688
p1621
I39
sV400278689
p1622
I40
sV400278512
p1623
I44
sV400278513
p1624
I49
sV400278042
p1625
I38
sV400278043
p1626
I47
sV400278044
p1627
I37
sV400278045
p1628
I43
sV400278514
p1629
I45
sV400278047
p1630
I42
sV400278048
p1631
I40
sV400278049
p1632
I40
sV400278518
p1633
I43
sV400278519
p1634
I48
sV400491548
p1635
I41
sV400491549
p1636
I41
sV400491546
p1637
I37
sV400491547
p1638
I42
sV400491544
p1639
I40
sV400491545
p1640
I32
sV400491542
p1641
I44
sV400491543
p1642
I42
sV400491540
p1643
I44
sV400491541
p1644
I45
sV400278198
p1645
I44
sV400278199
p1646
I40
sV400278196
p1647
I37
sV400278197
p1648
I41
sV400278194
p1649
I44
sV400278195
p1650
I42
sV400278192
p1651
I35
sV400278193
p1652
I46
sV400278190
p1653
I49
sV400278191
p1654
I45
sV400459793
p1655
I44
sV400459790
p1656
I34
sV400278857
p1657
I39
sV400278856
p1658
I43
sV400278855
p1659
I43
sV400278854
p1660
I43
sV400278853
p1661
I38
sV400278852
p1662
I38
sV400278851
p1663
I42
sV400278850
p1664
I46
sV400277795
p1665
I44
sV400277794
p1666
I39
sV400277797
p1667
I41
sV400277796
p1668
I38
sV400277791
p1669
I43
sV400277790
p1670
I42
sV400278859
p1671
I39
sV400278858
p1672
I45
sV400489114
p1673
I39
sV400489115
p1674
I38
sV400489116
p1675
I41
sV400489117
p1676
I47
sV400489110
p1677
I50
sV400489111
p1678
I44
sV400489112
p1679
I40
sV400489113
p1680
I41
sV400489118
p1681
I47
sV400489119
p1682
I40
sV400459779
p1683
I45
sV400459778
p1684
I43
sV400459775
p1685
I37
sV400459777
p1686
I43
sV400459776
p1687
I42
sV400488939
p1688
I38
sV400488938
p1689
I35
sV400488931
p1690
I42
sV400488930
p1691
I47
sV400488933
p1692
I43
sV400488932
p1693
I45
sV400488935
p1694
I51
sV400488934
p1695
I42
sV400488937
p1696
I47
sV400488936
p1697
I54
sV400489208
p1698
I47
sV400489209
p1699
I50
sV400489200
p1700
I38
sV400489201
p1701
I50
sV400489202
p1702
I40
sV400489203
p1703
I47
sV400489204
p1704
I42
sV400489205
p1705
I47
sV400489206
p1706
I38
sV400489207
p1707
I46
sV400489068
p1708
I44
sV400489069
p1709
I42
sV400489064
p1710
I44
sV400489065
p1711
I48
sV400489066
p1712
I43
sV400489067
p1713
I44
sV400489060
p1714
I36
sV400489061
p1715
I47
sV400489062
p1716
I42
sV400489063
p1717
I42
sV400459948
p1718
I46
sV400459949
p1719
I45
sV400459946
p1720
I36
sV400459947
p1721
I42
sV400459944
p1722
I42
sV400459945
p1723
I40
sV400459943
p1724
I40
sV400278453
p1725
I49
sV400278452
p1726
I43
sV400278451
p1727
I41
sV400278322
p1728
I44
sV400278457
p1729
I47
sV400278324
p1730
I40
sV400278327
p1731
I40
sV400278326
p1732
I48
sV400278329
p1733
I39
sV400278328
p1734
I37
sV400278459
p1735
I45
sV400278458
p1736
I42
sV400278219
p1737
I43
sV400278218
p1738
I45
sV400278215
p1739
I41
sV400278214
p1740
I47
sV400278217
p1741
I49
sV400278216
p1742
I44
sV400278211
p1743
I46
sV400278210
p1744
I47
sV400278213
p1745
I49
sV400278212
p1746
I43
sV400278527
p1747
I45
sV400278526
p1748
I45
sV400278525
p1749
I42
sV400278524
p1750
I48
sV400278523
p1751
I44
sV400278522
p1752
I44
sV400278521
p1753
I40
sV400278520
p1754
I36
sV400278450
p1755
I47
sV400278039
p1756
I48
sV400278038
p1757
I46
sV400278529
p1758
I41
sV400278528
p1759
I45
sV400491573
p1760
I31
sV400491572
p1761
I41
sV400491571
p1762
I36
sV400491570
p1763
I42
sV400491577
p1764
I48
sV400491576
p1765
I43
sV400491575
p1766
I42
sV400491574
p1767
I41
sV400491579
p1768
I38
sV400491578
p1769
I43
sV400491599
p1770
I37
sV400491598
p1771
I43
sV400491591
p1772
I40
sV400491590
p1773
I39
sV400491593
p1774
I39
sV400491592
p1775
I46
sV400491595
p1776
I42
sV400491594
p1777
I43
sV400491597
p1778
I42
sV400491596
p1779
I38
sV400278149
p1780
I44
sV400278148
p1781
I35
sV400278456
p1782
I48
sV400278141
p1783
I43
sV400278140
p1784
I43
sV400278143
p1785
I45
sV400278142
p1786
I44
sV400278145
p1787
I49
sV400278144
p1788
I41
sV400278147
p1789
I38
sV400278146
p1790
I40
sV400278241
p1791
I37
sV400278392
p1792
I41
sV400459784
p1793
I37
sV400459786
p1794
I35
sV400459787
p1795
I40
sV400459780
p1796
I42
sV400459781
p1797
I40
sV400459782
p1798
I38
sV400459783
p1799
I41
sV400459788
p1800
I47
sV400459789
p1801
I41
ssS'Q3'
p1802
(dp1803
g3
I41
sg4
I40
sg5
I36
sg6
I39
sg7
I39
sg8
I42
sg9
I41
sg10
I44
sg11
I35
sg12
I40
sg13
I35
sg14
I36
sg15
I34
sg16
I36
sg17
I40
sg18
I38
sg19
I37
sg20
I36
sg21
I46
sg22
I44
sg23
I34
sg24
I38
sg25
I43
sg26
I43
sg27
I34
sg28
I46
sg29
I48
sg30
I48
sg31
I37
sg32
I39
sg33
I38
sg34
I46
sg35
I46
sg36
I42
sg37
I39
sg38
I36
sg39
I33
sg40
I35
sg41
I44
sg42
I45
sg43
I40
sg44
I41
sg45
I38
sg46
I39
sg47
I45
sg48
I39
sg49
I43
sg50
I41
sg51
I32
sg52
I41
sg53
I38
sg54
I42
sg55
I47
sg56
I47
sg57
I44
sg58
I41
sg59
I42
sg60
I43
sg61
I44
sg62
I34
sg63
I51
sg64
I43
sg65
I42
sg66
I39
sg67
I36
sg68
I55
sg69
I35
sg70
I39
sg71
I41
sg72
I42
sg73
I39
sg74
I39
sg75
I36
sg76
I46
sg77
I45
sg78
I34
sg79
I44
sg80
I47
sg81
I29
sg82
I34
sg83
I40
sg84
I47
sg85
I45
sg86
I44
sg87
I45
sg88
I37
sg89
I41
sg90
I39
sg91
I35
sg92
I40
sg93
I41
sg94
I42
sg95
I33
sg96
I42
sg97
I41
sg98
I30
sg99
I43
sg100
I46
sg101
I42
sg102
I39
sg103
I38
sg104
I50
sg105
I37
sg106
I33
sg107
I37
sg108
I37
sg109
I53
sg110
I40
sg111
I39
sg112
I37
sg113
I42
sg114
I42
sg115
I36
sg116
I35
sg117
I48
sg118
I35
sg119
I43
sg120
I38
sg121
I32
sg122
I37
sg123
I35
sg124
I39
sg125
I44
sg126
I40
sg127
I38
sg128
I43
sg129
I45
sg130
I36
sg131
I44
sg132
I46
sg133
I41
sg134
I46
sg135
I35
sg136
I44
sg137
I37
sg138
I46
sg139
I38
sg140
I46
sg141
I33
sg142
I38
sg143
I35
sg144
I45
sg145
I31
sg146
I35
sg147
I38
sg148
I40
sg149
I44
sg150
I43
sg151
I43
sg152
I41
sg153
I46
sg154
I45
sg155
I45
sg156
I45
sg157
I44
sg158
I32
sg159
I35
sg160
I41
sg161
I37
sg162
I39
sg163
I38
sg164
I36
sg165
I39
sg166
I39
sg167
I37
sg168
I37
sg169
I46
sg170
I43
sg171
I42
sg172
I35
sg173
I41
sg174
I45
sg175
I40
sg176
I40
sg177
I47
sg178
I40
sg179
I38
sg180
I39
sg181
I49
sg182
I34
sg183
I34
sg184
I39
sg185
I43
sg186
I45
sg187
I47
sg188
I44
sg189
I40
sg190
I45
sg191
I46
sg192
I41
sg193
I44
sg194
I37
sg195
I42
sg196
I42
sg197
I29
sg198
I40
sg199
I39
sg200
I32
sg201
I45
sg202
I42
sg203
I36
sg204
I43
sg205
I39
sg206
I46
sg207
I37
sg208
I40
sg209
I37
sg210
I39
sg211
I41
sg212
I34
sg213
I38
sg214
I35
sg215
I42
sg216
I48
sg217
I37
sg218
I38
sg219
I42
sg220
I43
sg221
I37
sg222
I41
sg223
I38
sg224
I42
sg225
I39
sg226
I41
sg227
I41
sg228
I39
sg229
I42
sg230
I31
sg231
I36
sg232
I43
sg233
I41
sg234
I40
sg235
I35
sg236
I41
sg237
I41
sg238
I41
sg239
I36
sg240
I36
sg241
I39
sg242
I31
sg243
I36
sg244
I39
sg245
I42
sg246
I36
sg247
I42
sg248
I47
sg249
I39
sg250
I38
sg251
I41
sg252
I49
sg253
I46
sg254
I49
sg255
I43
sg256
I39
sg257
I38
sg258
I38
sg259
I42
sg260
I46
sg261
I47
sg262
I43
sg263
I49
sg264
I43
sg265
I37
sg266
I43
sg267
I38
sg268
I45
sg269
I37
sg270
I35
sg271
I41
sg272
I41
sg273
I35
sg274
I37
sg275
I41
sg276
I40
sg277
I32
sg278
I36
sg279
I37
sg280
I48
sg281
I40
sg282
I41
sg283
I41
sg284
I37
sg285
I43
sg286
I40
sg287
I38
sg288
I41
sg289
I39
sg290
I33
sg291
I34
sg292
I42
sg293
I39
sg294
I39
sg295
I37
sg296
I45
sg297
I36
sg298
I43
sg299
I40
sg300
I40
sg301
I43
sg302
I42
sg303
I38
sg304
I39
sg305
I37
sg306
I40
sg307
I46
sg308
I34
sg309
I45
sg310
I40
sg311
I33
sg312
I52
sg313
I41
sg314
I35
sg315
I44
sg316
I42
sg317
I48
sg318
I40
sg319
I45
sg320
I39
sg321
I37
sg322
I37
sg323
I39
sg324
I46
sg325
I40
sg326
I40
sg327
I37
sg328
I41
sg329
I49
sg330
I41
sg331
I35
sg332
I40
sg333
I40
sg334
I41
sg335
I41
sg336
I35
sg337
I49
sg338
I45
sg339
I35
sg340
I43
sg341
I44
sg342
I39
sg343
I40
sg344
I42
sg345
I41
sg346
I44
sg347
I45
sg348
I39
sg349
I37
sg350
I39
sg351
I45
sg352
I32
sg353
I42
sg354
I39
sg355
I43
sg356
I42
sg357
I35
sg358
I40
sg359
I47
sg360
I44
sg361
I40
sg362
I38
sg363
I42
sg364
I46
sg365
I39
sg366
I42
sg367
I47
sg368
I39
sg369
I44
sg370
I40
sg371
I37
sg372
I33
sg373
I43
sg374
I39
sg375
I35
sg376
I44
sg377
I37
sg378
I49
sg379
I41
sg380
I38
sg381
I37
sg382
I34
sg383
I43
sg384
I43
sg385
I37
sg386
I37
sg387
I39
sg388
I44
sg389
I40
sg390
I39
sg391
I42
sg392
I43
sg393
I59
sg394
I40
sg395
I36
sg396
I38
sg397
I42
sg398
I36
sg399
I46
sg400
I46
sg401
I42
sg402
I32
sg403
I41
sg404
I44
sg405
I38
sg406
I34
sg407
I39
sg408
I48
sg409
I41
sg410
I47
sg411
I39
sg412
I42
sg413
I46
sg414
I32
sg415
I38
sg416
I41
sg417
I40
sg418
I46
sg419
I35
sg420
I46
sg421
I46
sg422
I41
sg423
I40
sg424
I39
sg425
I37
sg426
I39
sg427
I40
sg428
I36
sg429
I44
sg430
I43
sg431
I32
sg432
I41
sg433
I44
sg434
I41
sg435
I41
sg436
I42
sg437
I41
sg438
I41
sg439
I41
sg440
I40
sg441
I38
sg442
I37
sg443
I34
sg444
I38
sg445
I43
sg446
I36
sg447
I38
sg448
I36
sg449
I46
sg450
I44
sg451
I37
sg452
I38
sg453
I41
sg454
I44
sg455
I43
sg456
I39
sg457
I33
sg458
I42
sg459
I47
sg460
I47
sg461
I42
sg462
I37
sg463
I35
sg464
I47
sg465
I37
sg466
I34
sg467
I46
sg468
I42
sg469
I47
sg470
I41
sg471
I39
sg472
I40
sg473
I45
sg474
I43
sg475
I41
sg476
I37
sg477
I43
sg478
I31
sg479
I35
sg480
I37
sg481
I42
sg482
I43
sg483
I36
sg484
I36
sg485
I40
sg486
I43
sg487
I45
sg488
I40
sg489
I37
sg490
I39
sg491
I42
sg492
I47
sg493
I45
sg494
I38
sg495
I38
sg496
I32
sg497
I45
sg498
I43
sg499
I41
sg500
I40
sg501
I33
sg502
I39
sg503
I34
sg504
I44
sg505
I39
sg506
I39
sg507
I36
sg508
I38
sg509
I37
sg510
I37
sg511
I34
sg512
I37
sg513
I41
sg514
I33
sg515
I40
sg516
I41
sg517
I31
sg518
I38
sg519
I39
sg520
I41
sg521
I42
sg522
I35
sg523
I33
sg524
I40
sg525
I32
sg526
I40
sg527
I31
sg528
I44
sg529
I42
sg530
I49
sg531
I38
sg532
I43
sg533
I43
sg534
I42
sg535
I41
sg536
I40
sg537
I43
sg538
I39
sg539
I42
sg540
I35
sg541
I41
sg542
I45
sg543
I46
sg544
I37
sg545
I33
sg546
I35
sg547
I42
sg548
I35
sg549
I43
sg550
I42
sg551
I36
sg552
I45
sg553
I40
sg554
I38
sg555
I45
sg556
I41
sg557
I42
sg558
I36
sg559
I38
sg560
I42
sg561
I48
sg562
I40
sg563
I35
sg564
I36
sg565
I41
sg566
I43
sg567
I39
sg568
I41
sg569
I40
sg570
I34
sg571
I42
sg572
I41
sg573
I39
sg574
I36
sg575
I44
sg576
I46
sg577
I42
sg578
I38
sg579
I39
sg580
I36
sg581
I40
sg582
I46
sg583
I37
sg584
I34
sg585
I41
sg586
I31
sg587
I37
sg588
I43
sg589
I41
sg590
I35
sg591
I36
sg592
I41
sg593
I45
sg594
I46
sg595
I42
sg596
I36
sg597
I41
sg598
I38
sg599
I35
sg600
I39
sg601
I39
sg602
I40
sg603
I54
sg604
I34
sg605
I33
sg606
I41
sg607
I40
sg608
I44
sg609
I43
sg610
I33
sg611
I34
sg612
I43
sg613
I38
sg614
I44
sg615
I35
sg616
I37
sg617
I34
sg618
I45
sg619
I39
sg620
I47
sg621
I42
sg622
I44
sg623
I38
sg624
I39
sg625
I42
sg626
I41
sg627
I40
sg628
I38
sg629
I41
sg630
I42
sg631
I37
sg632
I45
sg633
I40
sg634
I38
sg635
I40
sg636
I36
sg637
I40
sg638
I34
sg639
I37
sg640
I40
sg641
I43
sg642
I38
sg643
I47
sg644
I41
sg645
I42
sg646
I41
sg647
I39
sg648
I43
sg649
I43
sg650
I41
sg651
I43
sg652
I42
sg653
I43
sg654
I40
sg655
I41
sg656
I45
sg657
I41
sg658
I38
sg659
I41
sg660
I39
sg661
I40
sg662
I41
sg663
I43
sg664
I44
sg665
I40
sg666
I44
sg667
I39
sg668
I44
sg669
I42
sg670
I42
sg671
I40
sg672
I39
sg673
I42
sg674
I39
sg675
I45
sg676
I40
sg677
I42
sg678
I37
sg679
I37
sg680
I39
sg681
I40
sg682
I42
sg683
I40
sg684
I40
sg685
I44
sg686
I45
sg687
I41
sg688
I44
sg689
I36
sg690
I36
sg691
I42
sg692
I42
sg693
I38
sg694
I46
sg695
I34
sg696
I42
sg697
I36
sg698
I43
sg699
I33
sg700
I42
sg701
I35
sg702
I41
sg703
I36
sg704
I45
sg705
I41
sg706
I38
sg707
I42
sg708
I39
sg709
I33
sg710
I44
sg711
I43
sg712
I43
sg713
I44
sg714
I37
sg715
I41
sg716
I43
sg717
I43
sg718
I43
sg719
I44
sg720
I42
sg721
I42
sg722
I38
sg723
I44
sg724
I42
sg725
I36
sg726
I28
sg727
I37
sg728
I39
sg729
I39
sg730
I39
sg731
I46
sg732
I32
sg733
I39
sg734
I44
sg735
I39
sg736
I40
sg737
I40
sg738
I40
sg739
I38
sg740
I46
sg741
I37
sg742
I37
sg743
I35
sg744
I39
sg745
I38
sg746
I38
sg747
I48
sg748
I39
sg749
I38
sg750
I40
sg751
I38
sg752
I43
sg753
I40
sg754
I34
sg755
I43
sg756
I39
sg757
I37
sg758
I45
sg759
I41
sg760
I42
sg761
I41
sg762
I44
sg763
I49
sg764
I38
sg765
I43
sg766
I38
sg767
I42
sg768
I42
sg769
I39
sg770
I38
sg771
I36
sg772
I46
sg773
I47
sg774
I45
sg775
I37
sg776
I45
sg777
I37
sg778
I44
sg779
I40
sg780
I43
sg781
I30
sg782
I33
sg783
I39
sg784
I34
sg785
I42
sg786
I44
sg787
I39
sg788
I44
sg789
I36
sg790
I39
sg791
I45
sg792
I36
sg793
I50
sg794
I44
sg795
I40
sg796
I50
sg797
I41
sg798
I43
sg799
I40
sg800
I45
sg801
I40
sg802
I38
sg803
I36
sg804
I43
sg805
I40
sg806
I40
sg807
I37
sg808
I39
sg809
I47
sg810
I39
sg811
I41
sg812
I33
sg813
I42
sg814
I35
sg815
I30
sg816
I42
sg817
I47
sg818
I48
sg819
I38
sg820
I39
sg821
I39
sg822
I35
sg823
I38
sg824
I41
sg825
I33
sg826
I32
sg827
I37
sg828
I42
sg829
I40
sg830
I46
sg831
I43
sg832
I42
sg833
I35
sg834
I41
sg835
I43
sg836
I48
sg837
I37
sg838
I38
sg839
I36
sg840
I41
sg841
I43
sg842
I42
sg843
I38
sg844
I39
sg845
I46
sg846
I41
sg847
I36
sg848
I43
sg849
I37
sg850
I35
sg851
I37
sg852
I35
sg853
I40
sg854
I34
sg855
I43
sg856
I44
sg857
I40
sg858
I38
sg859
I36
sg860
I47
sg861
I40
sg862
I43
sg863
I40
sg864
I37
sg865
I38
sg866
I39
sg867
I42
sg868
I47
sg869
I39
sg870
I38
sg871
I42
sg872
I37
sg873
I40
sg874
I41
sg875
I38
sg876
I41
sg877
I45
sg878
I36
sg879
I42
sg880
I44
sg881
I44
sg882
I45
sg883
I40
sg884
I42
sg885
I39
sg886
I42
sg887
I37
sg888
I40
sg889
I45
sg890
I42
sg891
I36
sg892
I35
sg893
I44
sg894
I46
sg895
I46
sg896
I42
sg897
I49
sg898
I41
sg899
I41
sg900
I45
sg901
I37
sg902
I45
sg903
I39
sg904
I51
sg905
I42
sg906
I47
sg907
I32
sg908
I34
sg909
I40
sg910
I34
sg911
I43
sg912
I33
sg913
I36
sg914
I36
sg915
I36
sg916
I40
sg917
I43
sg918
I41
sg919
I39
sg920
I37
sg921
I44
sg922
I42
sg923
I35
sg924
I37
sg925
I36
sg926
I39
sg927
I43
sg928
I50
sg929
I40
sg930
I35
sg931
I38
sg932
I41
sg933
I34
sg934
I49
sg935
I37
sg936
I45
sg937
I37
sg938
I46
sg939
I46
sg940
I35
sg941
I35
sg942
I42
sg943
I35
sg944
I34
sg945
I37
sg946
I44
sg947
I43
sg948
I42
sg949
I45
sg950
I36
sg951
I40
sg952
I36
sg953
I40
sg954
I39
sg955
I34
sg956
I41
sg957
I40
sg958
I37
sg959
I42
sg960
I33
sg961
I46
sg962
I40
sg963
I36
sg964
I38
sg965
I41
sg966
I52
sg967
I43
sg968
I39
sg969
I42
sg970
I37
sg971
I37
sg972
I39
sg973
I41
sg974
I44
sg975
I31
sg976
I38
sg977
I42
sg978
I40
sg979
I42
sg980
I47
sg981
I41
sg982
I37
sg983
I33
sg984
I42
sg985
I47
sg986
I41
sg987
I35
sg988
I35
sg989
I45
sg990
I44
sg991
I41
sg992
I36
sg993
I39
sg994
I37
sg995
I31
sg996
I42
sg997
I41
sg998
I37
sg999
I42
sg1000
I42
sg1001
I40
sg1002
I41
sg1003
I41
sg1004
I38
sg1005
I41
sg1006
I38
sg1007
I42
sg1008
I31
sg1009
I37
sg1010
I44
sg1011
I49
sg1012
I41
sg1013
I48
sg1014
I37
sg1015
I37
sg1016
I41
sg1017
I42
sg1018
I39
sg1019
I41
sg1020
I39
sg1021
I42
sg1022
I36
sg1023
I50
sg1024
I38
sg1025
I40
sg1026
I40
sg1027
I45
sg1028
I40
sg1029
I36
sg1030
I40
sg1031
I40
sg1032
I52
sg1033
I48
sg1034
I44
sg1035
I38
sg1036
I44
sg1037
I43
sg1038
I34
sg1039
I41
sg1040
I38
sg1041
I40
sg1042
I46
sg1043
I40
sg1044
I40
sg1045
I49
sg1046
I39
sg1047
I44
sg1048
I39
sg1049
I46
sg1050
I40
sg1051
I46
sg1052
I36
sg1053
I49
sg1054
I41
sg1055
I35
sg1056
I41
sg1057
I40
sg1058
I37
sg1059
I31
sg1060
I38
sg1061
I44
sg1062
I41
sg1063
I38
sg1064
I39
sg1065
I36
sg1066
I38
sg1067
I37
sg1068
I40
sg1069
I42
sg1070
I42
sg1071
I43
sg1072
I43
sg1073
I37
sg1074
I39
sg1075
I39
sg1076
I46
sg1077
I38
sg1078
I35
sg1079
I44
sg1080
I37
sg1081
I41
sg1082
I41
sg1083
I36
sg1084
I39
sg1085
I42
sg1086
I41
sg1087
I40
sg1088
I37
sg1089
I40
sg1090
I38
sg1091
I37
sg1092
I44
sg1093
I37
sg1094
I42
sg1095
I40
sg1096
I41
sg1097
I40
sg1098
I43
sg1099
I34
sg1100
I47
sg1101
I34
sg1102
I37
sg1103
I39
sg1104
I39
sg1105
I41
sg1106
I44
sg1107
I40
sg1108
I39
sg1109
I39
sg1110
I32
sg1111
I35
sg1112
I45
sg1113
I46
sg1114
I41
sg1115
I33
sg1116
I44
sg1117
I41
sg1118
I32
sg1119
I44
sg1120
I40
sg1121
I43
sg1122
I47
sg1123
I45
sg1124
I42
sg1125
I49
sg1126
I33
sg1127
I44
sg1128
I40
sg1129
I41
sg1130
I43
sg1131
I44
sg1132
I49
sg1133
I39
sg1134
I41
sg1135
I42
sg1136
I34
sg1137
I36
sg1138
I45
sg1139
I39
sg1140
I44
sg1141
I45
sg1142
I43
sg1143
I45
sg1144
I38
sg1145
I36
sg1146
I37
sg1147
I43
sg1148
I41
sg1149
I46
sg1150
I43
sg1151
I34
sg1152
I35
sg1153
I43
sg1154
I41
sg1155
I42
sg1156
I45
sg1157
I36
sg1158
I38
sg1159
I37
sg1160
I39
sg1161
I46
sg1162
I39
sg1163
I41
sg1164
I44
sg1165
I34
sg1166
I44
sg1167
I32
sg1168
I36
sg1169
I43
sg1170
I44
sg1171
I43
sg1172
I35
sg1173
I47
sg1174
I43
sg1175
I40
sg1176
I43
sg1177
I45
sg1178
I44
sg1179
I44
sg1180
I43
sg1181
I44
sg1182
I43
sg1183
I35
sg1184
I33
sg1185
I37
sg1186
I44
sg1187
I45
sg1188
I35
sg1189
I48
sg1190
I39
sg1191
I39
sg1192
I36
sg1193
I43
sg1194
I40
sg1195
I44
sg1196
I40
sg1197
I40
sg1198
I44
sg1199
I38
sg1200
I43
sg1201
I41
sg1202
I33
sg1203
I41
sg1204
I41
sg1205
I38
sg1206
I43
sg1207
I39
sg1208
I41
sg1209
I43
sg1210
I46
sg1211
I38
sg1212
I34
sg1213
I43
sg1214
I43
sg1215
I37
sg1216
I43
sg1217
I39
sg1218
I32
sg1219
I36
sg1220
I31
sg1221
I39
sg1222
I38
sg1223
I36
sg1224
I39
sg1225
I37
sg1226
I40
sg1227
I39
sg1228
I35
sg1229
I35
sg1230
I43
sg1231
I41
sg1232
I35
sg1233
I38
sg1234
I41
sg1235
I38
sg1236
I34
sg1237
I34
sg1238
I44
sg1239
I46
sg1240
I39
sg1241
I41
sg1242
I44
sg1243
I41
sg1244
I37
sg1245
I41
sg1246
I44
sg1247
I45
sg1248
I38
sg1249
I47
sg1250
I35
sg1251
I39
sg1252
I36
sg1253
I33
sg1254
I41
sg1255
I40
sg1256
I49
sg1257
I37
sg1258
I44
sg1259
I41
sg1260
I44
sg1261
I41
sg1262
I35
sg1263
I42
sg1264
I44
sg1265
I39
sg1266
I43
sg1267
I40
sg1268
I39
sg1269
I34
sg1270
I42
sg1271
I41
sg1272
I45
sg1273
I40
sg1274
I49
sg1275
I42
sg1276
I37
sg1277
I44
sg1278
I32
sg1279
I40
sg1280
I38
sg1281
I43
sg1282
I34
sg1283
I39
sg1284
I41
sg1285
I37
sg1286
I43
sg1287
I43
sg1288
I42
sg1289
I42
sg1290
I39
sg1291
I44
sg1292
I43
sg1293
I37
sg1294
I46
sg1295
I39
sg1296
I40
sg1297
I39
sg1298
I49
sg1299
I37
sg1300
I47
sg1301
I38
sg1302
I35
sg1303
I44
sg1304
I45
sg1305
I43
sg1306
I36
sg1307
I38
sg1308
I37
sg1309
I46
sg1310
I44
sg1311
I43
sg1312
I37
sg1313
I37
sg1314
I37
sg1315
I41
sg1316
I39
sg1317
I41
sg1318
I35
sg1319
I37
sg1320
I46
sg1321
I39
sg1322
I40
sg1323
I36
sg1324
I43
sg1325
I41
sg1326
I42
sg1327
I39
sg1328
I38
sg1329
I34
sg1330
I45
sg1331
I32
sg1332
I47
sg1333
I37
sg1334
I51
sg1335
I39
sg1336
I37
sg1337
I34
sg1338
I39
sg1339
I37
sg1340
I43
sg1341
I41
sg1342
I42
sg1343
I41
sg1344
I39
sg1345
I36
sg1346
I39
sg1347
I38
sg1348
I38
sg1349
I42
sg1350
I44
sg1351
I41
sg1352
I40
sg1353
I41
sg1354
I40
sg1355
I38
sg1356
I37
sg1357
I31
sg1358
I34
sg1359
I37
sg1360
I41
sg1361
I36
sg1362
I36
sg1363
I37
sg1364
I49
sg1365
I37
sg1366
I40
sg1367
I44
sg1368
I38
sg1369
I36
sg1370
I37
sg1371
I38
sg1372
I44
sg1373
I38
sg1374
I37
sg1375
I34
sg1376
I43
sg1377
I43
sg1378
I35
sg1379
I37
sg1380
I39
sg1381
I46
sg1382
I43
sg1383
I37
sg1384
I40
sg1385
I35
sg1386
I40
sg1387
I38
sg1388
I38
sg1389
I35
sg1390
I45
sg1391
I39
sg1392
I41
sg1393
I36
sg1394
I41
sg1395
I39
sg1396
I40
sg1397
I36
sg1398
I42
sg1399
I44
sg1400
I38
sg1401
I40
sg1402
I39
sg1403
I36
sg1404
I37
sg1405
I42
sg1406
I38
sg1407
I41
sg1408
I43
sg1409
I39
sg1410
I42
sg1411
I41
sg1412
I41
sg1413
I39
sg1414
I40
sg1415
I45
sg1416
I39
sg1417
I43
sg1418
I39
sg1419
I38
sg1420
I37
sg1421
I43
sg1422
I32
sg1423
I35
sg1424
I43
sg1425
I41
sg1426
I39
sg1427
I47
sg1428
I29
sg1429
I40
sg1430
I31
sg1431
I35
sg1432
I37
sg1433
I43
sg1434
I41
sg1435
I36
sg1436
I45
sg1437
I34
sg1438
I43
sg1439
I47
sg1440
I44
sg1441
I39
sg1442
I37
sg1443
I34
sg1444
I32
sg1445
I44
sg1446
I33
sg1447
I38
sg1448
I42
sg1449
I40
sg1450
I39
sg1451
I41
sg1452
I39
sg1453
I40
sg1454
I39
sg1455
I41
sg1456
I43
sg1457
I41
sg1458
I41
sg1459
I35
sg1460
I41
sg1461
I37
sg1462
I36
sg1463
I37
sg1464
I43
sg1465
I41
sg1466
I41
sg1467
I40
sg1468
I36
sg1469
I42
sg1470
I41
sg1471
I41
sg1472
I41
sg1473
I41
sg1474
I44
sg1475
I39
sg1476
I43
sg1477
I41
sg1478
I42
sg1479
I35
sg1480
I44
sg1481
I41
sg1482
I37
sg1483
I42
sg1484
I36
sg1485
I40
sg1486
I40
sg1487
I40
sg1488
I37
sg1489
I40
sg1490
I37
sg1491
I37
sg1492
I36
sg1493
I45
sg1494
I35
sg1495
I42
sg1496
I45
sg1497
I40
sg1498
I39
sg1499
I37
sg1500
I36
sg1501
I47
sg1502
I40
sg1503
I38
sg1504
I50
sg1505
I45
sg1506
I33
sg1507
I42
sg1508
I38
sg1509
I43
sg1510
I42
sg1511
I36
sg1512
I40
sg1513
I41
sg1514
I47
sg1515
I41
sg1516
I41
sg1517
I43
sg1518
I47
sg1519
I41
sg1520
I37
sg1521
I39
sg1522
I39
sg1523
I46
sg1524
I35
sg1525
I38
sg1526
I36
sg1527
I34
sg1528
I37
sg1529
I38
sg1530
I39
sg1531
I44
sg1532
I37
sg1533
I45
sg1534
I38
sg1535
I41
sg1536
I36
sg1537
I29
sg1538
I37
sg1539
I39
sg1540
I44
sg1541
I36
sg1542
I47
sg1543
I46
sg1544
I39
sg1545
I37
sg1546
I41
sg1547
I42
sg1548
I42
sg1549
I45
sg1550
I38
sg1551
I43
sg1552
I44
sg1553
I33
sg1554
I46
sg1555
I42
sg1556
I41
sg1557
I40
sg1558
I40
sg1559
I40
sg1560
I45
sg1561
I38
sg1562
I45
sg1563
I36
sg1564
I43
sg1565
I41
sg1566
I37
sg1567
I41
sg1568
I35
sg1569
I35
sg1570
I42
sg1571
I32
sg1572
I41
sg1573
I38
sg1574
I37
sg1575
I31
sg1576
I39
sg1577
I39
sg1578
I42
sg1579
I41
sg1580
I35
sg1581
I34
sg1582
I35
sg1583
I39
sg1584
I40
sg1585
I38
sg1586
I33
sg1587
I35
sg1588
I42
sg1589
I44
sg1590
I36
sg1591
I35
sg1592
I38
sg1593
I44
sg1594
I36
sg1595
I42
sg1596
I32
sg1597
I41
sg1598
I40
sg1599
I33
sg1600
I41
sg1601
I44
sg1602
I33
sg1603
I44
sg1604
I43
sg1605
I45
sg1606
I41
sg1607
I41
sg1608
I38
sg1609
I42
sg1610
I35
sg1611
I45
sg1612
I42
sg1613
I36
sg1614
I41
sg1615
I42
sg1616
I46
sg1617
I40
sg1618
I38
sg1619
I40
sg1620
I35
sg1621
I49
sg1622
I38
sg1623
I38
sg1624
I43
sg1625
I40
sg1626
I41
sg1627
I44
sg1628
I38
sg1629
I36
sg1630
I36
sg1631
I40
sg1632
I37
sg1633
I37
sg1634
I41
sg1635
I33
sg1636
I43
sg1637
I43
sg1638
I36
sg1639
I42
sg1640
I37
sg1641
I40
sg1642
I34
sg1643
I48
sg1644
I44
sg1645
I40
sg1646
I41
sg1647
I41
sg1648
I37
sg1649
I42
sg1650
I41
sg1651
I35
sg1652
I39
sg1653
I41
sg1654
I48
sg1655
I33
sg1656
I40
sg1657
I44
sg1658
I47
sg1659
I42
sg1660
I34
sg1661
I38
sg1662
I38
sg1663
I39
sg1664
I42
sg1665
I38
sg1666
I42
sg1667
I44
sg1668
I37
sg1669
I44
sg1670
I36
sg1671
I46
sg1672
I42
sg1673
I42
sg1674
I40
sg1675
I36
sg1676
I45
sg1677
I50
sg1678
I34
sg1679
I34
sg1680
I33
sg1681
I41
sg1682
I40
sg1683
I41
sg1684
I38
sg1685
I35
sg1686
I41
sg1687
I35
sg1688
I40
sg1689
I33
sg1690
I44
sg1691
I38
sg1692
I36
sg1693
I42
sg1694
I39
sg1695
I40
sg1696
I40
sg1697
I45
sg1698
I39
sg1699
I45
sg1700
I35
sg1701
I45
sg1702
I35
sg1703
I45
sg1704
I40
sg1705
I32
sg1706
I39
sg1707
I41
sg1708
I43
sg1709
I39
sg1710
I36
sg1711
I39
sg1712
I40
sg1713
I40
sg1714
I40
sg1715
I41
sg1716
I37
sg1717
I40
sg1718
I42
sg1719
I41
sg1720
I37
sg1721
I36
sg1722
I38
sg1723
I40
sg1724
I46
sg1725
I41
sg1726
I36
sg1727
I38
sg1728
I45
sg1729
I35
sg1730
I40
sg1731
I39
sg1732
I39
sg1733
I42
sg1734
I33
sg1735
I43
sg1736
I42
sg1737
I33
sg1738
I40
sg1739
I37
sg1740
I45
sg1741
I35
sg1742
I45
sg1743
I43
sg1744
I45
sg1745
I40
sg1746
I43
sg1747
I35
sg1748
I46
sg1749
I37
sg1750
I45
sg1751
I39
sg1752
I37
sg1753
I41
sg1754
I35
sg1755
I39
sg1756
I40
sg1757
I36
sg1758
I38
sg1759
I41
sg1760
I40
sg1761
I38
sg1762
I38
sg1763
I40
sg1764
I41
sg1765
I45
sg1766
I36
sg1767
I38
sg1768
I33
sg1769
I42
sg1770
I38
sg1771
I46
sg1772
I29
sg1773
I38
sg1774
I34
sg1775
I46
sg1776
I42
sg1777
I42
sg1778
I36
sg1779
I37
sg1780
I41
sg1781
I32
sg1782
I41
sg1783
I46
sg1784
I45
sg1785
I44
sg1786
I52
sg1787
I38
sg1788
I39
sg1789
I35
sg1790
I44
sg1791
I41
sg1792
I38
sg1793
I39
sg1794
I37
sg1795
I37
sg1796
I43
sg1797
I47
sg1798
I37
sg1799
I39
sg1800
I36
sg1801
I38
ssS'Q2'
p1804
(dp1805
g3
I41
sg4
I39
sg5
I37
sg6
I44
sg7
I41
sg8
I37
sg9
I49
sg10
I43
sg11
I41
sg12
I49
sg13
I42
sg14
I41
sg15
I39
sg16
I45
sg17
I40
sg18
I47
sg19
I33
sg20
I43
sg21
I36
sg22
I43
sg23
I37
sg24
I41
sg25
I35
sg26
I48
sg27
I38
sg28
I48
sg29
I42
sg30
I42
sg31
I38
sg32
I43
sg33
I43
sg34
I35
sg35
I41
sg36
I40
sg37
I43
sg38
I43
sg39
I36
sg40
I39
sg41
I41
sg42
I41
sg43
I51
sg44
I41
sg45
I37
sg46
I44
sg47
I50
sg48
I40
sg49
I32
sg50
I41
sg51
I35
sg52
I40
sg53
I37
sg54
I36
sg55
I43
sg56
I38
sg57
I42
sg58
I41
sg59
I43
sg60
I35
sg61
I36
sg62
I47
sg63
I37
sg64
I42
sg65
I47
sg66
I40
sg67
I40
sg68
I39
sg69
I44
sg70
I39
sg71
I46
sg72
I44
sg73
I39
sg74
I38
sg75
I41
sg76
I43
sg77
I37
sg78
I38
sg79
I37
sg80
I42
sg81
I42
sg82
I40
sg83
I43
sg84
I37
sg85
I35
sg86
I45
sg87
I44
sg88
I43
sg89
I39
sg90
I38
sg91
I38
sg92
I43
sg93
I36
sg94
I38
sg95
I39
sg96
I42
sg97
I41
sg98
I38
sg99
I37
sg100
I37
sg101
I39
sg102
I36
sg103
I42
sg104
I40
sg105
I38
sg106
I43
sg107
I37
sg108
I35
sg109
I47
sg110
I41
sg111
I40
sg112
I38
sg113
I47
sg114
I51
sg115
I37
sg116
I41
sg117
I48
sg118
I44
sg119
I37
sg120
I42
sg121
I44
sg122
I37
sg123
I38
sg124
I49
sg125
I44
sg126
I44
sg127
I44
sg128
I41
sg129
I45
sg130
I41
sg131
I35
sg132
I43
sg133
I45
sg134
I48
sg135
I40
sg136
I34
sg137
I35
sg138
I40
sg139
I31
sg140
I46
sg141
I46
sg142
I46
sg143
I38
sg144
I37
sg145
I36
sg146
I36
sg147
I43
sg148
I36
sg149
I46
sg150
I41
sg151
I35
sg152
I39
sg153
I46
sg154
I34
sg155
I49
sg156
I37
sg157
I45
sg158
I40
sg159
I38
sg160
I35
sg161
I38
sg162
I44
sg163
I45
sg164
I41
sg165
I43
sg166
I43
sg167
I43
sg168
I41
sg169
I49
sg170
I46
sg171
I42
sg172
I42
sg173
I35
sg174
I44
sg175
I47
sg176
I42
sg177
I39
sg178
I34
sg179
I36
sg180
I40
sg181
I41
sg182
I41
sg183
I48
sg184
I36
sg185
I40
sg186
I36
sg187
I50
sg188
I35
sg189
I45
sg190
I39
sg191
I45
sg192
I40
sg193
I36
sg194
I43
sg195
I40
sg196
I37
sg197
I35
sg198
I41
sg199
I38
sg200
I35
sg201
I49
sg202
I38
sg203
I45
sg204
I37
sg205
I38
sg206
I43
sg207
I40
sg208
I38
sg209
I38
sg210
I45
sg211
I35
sg212
I38
sg213
I37
sg214
I41
sg215
I41
sg216
I47
sg217
I44
sg218
I40
sg219
I41
sg220
I44
sg221
I37
sg222
I40
sg223
I45
sg224
I38
sg225
I44
sg226
I39
sg227
I40
sg228
I39
sg229
I50
sg230
I43
sg231
I41
sg232
I42
sg233
I42
sg234
I50
sg235
I43
sg236
I38
sg237
I40
sg238
I42
sg239
I39
sg240
I38
sg241
I36
sg242
I34
sg243
I46
sg244
I45
sg245
I38
sg246
I45
sg247
I38
sg248
I41
sg249
I36
sg250
I46
sg251
I42
sg252
I44
sg253
I54
sg254
I43
sg255
I43
sg256
I45
sg257
I43
sg258
I36
sg259
I34
sg260
I42
sg261
I45
sg262
I39
sg263
I39
sg264
I41
sg265
I42
sg266
I42
sg267
I35
sg268
I35
sg269
I36
sg270
I37
sg271
I42
sg272
I44
sg273
I44
sg274
I51
sg275
I47
sg276
I42
sg277
I32
sg278
I37
sg279
I38
sg280
I49
sg281
I38
sg282
I44
sg283
I39
sg284
I41
sg285
I39
sg286
I40
sg287
I44
sg288
I49
sg289
I33
sg290
I35
sg291
I37
sg292
I37
sg293
I45
sg294
I44
sg295
I43
sg296
I40
sg297
I42
sg298
I36
sg299
I42
sg300
I39
sg301
I40
sg302
I47
sg303
I43
sg304
I43
sg305
I39
sg306
I36
sg307
I47
sg308
I39
sg309
I48
sg310
I40
sg311
I36
sg312
I57
sg313
I47
sg314
I38
sg315
I41
sg316
I35
sg317
I45
sg318
I38
sg319
I42
sg320
I44
sg321
I45
sg322
I46
sg323
I43
sg324
I40
sg325
I40
sg326
I43
sg327
I41
sg328
I39
sg329
I43
sg330
I43
sg331
I43
sg332
I41
sg333
I40
sg334
I39
sg335
I43
sg336
I39
sg337
I45
sg338
I41
sg339
I37
sg340
I36
sg341
I34
sg342
I38
sg343
I32
sg344
I39
sg345
I34
sg346
I43
sg347
I40
sg348
I35
sg349
I42
sg350
I41
sg351
I35
sg352
I41
sg353
I46
sg354
I43
sg355
I43
sg356
I40
sg357
I39
sg358
I41
sg359
I43
sg360
I42
sg361
I43
sg362
I46
sg363
I42
sg364
I37
sg365
I40
sg366
I47
sg367
I43
sg368
I37
sg369
I45
sg370
I38
sg371
I37
sg372
I34
sg373
I42
sg374
I40
sg375
I40
sg376
I37
sg377
I39
sg378
I46
sg379
I39
sg380
I40
sg381
I35
sg382
I41
sg383
I49
sg384
I38
sg385
I38
sg386
I36
sg387
I39
sg388
I38
sg389
I36
sg390
I49
sg391
I42
sg392
I41
sg393
I55
sg394
I42
sg395
I43
sg396
I46
sg397
I53
sg398
I41
sg399
I39
sg400
I44
sg401
I42
sg402
I39
sg403
I38
sg404
I36
sg405
I38
sg406
I48
sg407
I40
sg408
I43
sg409
I37
sg410
I42
sg411
I46
sg412
I39
sg413
I39
sg414
I51
sg415
I34
sg416
I44
sg417
I40
sg418
I44
sg419
I42
sg420
I49
sg421
I43
sg422
I39
sg423
I39
sg424
I40
sg425
I43
sg426
I35
sg427
I46
sg428
I40
sg429
I52
sg430
I40
sg431
I38
sg432
I46
sg433
I44
sg434
I40
sg435
I39
sg436
I38
sg437
I46
sg438
I47
sg439
I43
sg440
I39
sg441
I48
sg442
I37
sg443
I41
sg444
I44
sg445
I41
sg446
I40
sg447
I38
sg448
I44
sg449
I38
sg450
I38
sg451
I47
sg452
I44
sg453
I39
sg454
I36
sg455
I39
sg456
I38
sg457
I41
sg458
I44
sg459
I43
sg460
I45
sg461
I50
sg462
I40
sg463
I46
sg464
I40
sg465
I35
sg466
I44
sg467
I48
sg468
I42
sg469
I36
sg470
I39
sg471
I42
sg472
I45
sg473
I38
sg474
I45
sg475
I39
sg476
I43
sg477
I39
sg478
I42
sg479
I46
sg480
I39
sg481
I46
sg482
I44
sg483
I38
sg484
I38
sg485
I42
sg486
I39
sg487
I45
sg488
I55
sg489
I46
sg490
I47
sg491
I46
sg492
I41
sg493
I44
sg494
I39
sg495
I33
sg496
I39
sg497
I41
sg498
I42
sg499
I43
sg500
I42
sg501
I33
sg502
I39
sg503
I41
sg504
I38
sg505
I40
sg506
I43
sg507
I38
sg508
I39
sg509
I39
sg510
I45
sg511
I39
sg512
I37
sg513
I40
sg514
I40
sg515
I33
sg516
I37
sg517
I36
sg518
I40
sg519
I39
sg520
I35
sg521
I38
sg522
I41
sg523
I41
sg524
I44
sg525
I41
sg526
I36
sg527
I33
sg528
I42
sg529
I37
sg530
I35
sg531
I46
sg532
I42
sg533
I46
sg534
I42
sg535
I38
sg536
I42
sg537
I43
sg538
I37
sg539
I42
sg540
I37
sg541
I38
sg542
I39
sg543
I40
sg544
I40
sg545
I40
sg546
I44
sg547
I38
sg548
I45
sg549
I42
sg550
I43
sg551
I50
sg552
I39
sg553
I43
sg554
I43
sg555
I43
sg556
I39
sg557
I42
sg558
I48
sg559
I41
sg560
I37
sg561
I43
sg562
I41
sg563
I35
sg564
I40
sg565
I34
sg566
I41
sg567
I40
sg568
I39
sg569
I44
sg570
I38
sg571
I37
sg572
I39
sg573
I41
sg574
I45
sg575
I48
sg576
I40
sg577
I36
sg578
I40
sg579
I37
sg580
I43
sg581
I43
sg582
I42
sg583
I49
sg584
I45
sg585
I39
sg586
I36
sg587
I43
sg588
I41
sg589
I40
sg590
I33
sg591
I37
sg592
I36
sg593
I38
sg594
I44
sg595
I35
sg596
I44
sg597
I40
sg598
I35
sg599
I41
sg600
I41
sg601
I40
sg602
I45
sg603
I47
sg604
I39
sg605
I38
sg606
I41
sg607
I39
sg608
I43
sg609
I45
sg610
I42
sg611
I39
sg612
I43
sg613
I42
sg614
I40
sg615
I39
sg616
I40
sg617
I42
sg618
I38
sg619
I38
sg620
I41
sg621
I37
sg622
I38
sg623
I38
sg624
I42
sg625
I47
sg626
I44
sg627
I39
sg628
I39
sg629
I34
sg630
I40
sg631
I37
sg632
I36
sg633
I45
sg634
I41
sg635
I44
sg636
I32
sg637
I37
sg638
I45
sg639
I41
sg640
I37
sg641
I48
sg642
I35
sg643
I43
sg644
I44
sg645
I43
sg646
I37
sg647
I35
sg648
I47
sg649
I52
sg650
I41
sg651
I47
sg652
I42
sg653
I43
sg654
I44
sg655
I44
sg656
I43
sg657
I42
sg658
I36
sg659
I43
sg660
I40
sg661
I37
sg662
I38
sg663
I42
sg664
I44
sg665
I38
sg666
I44
sg667
I41
sg668
I47
sg669
I41
sg670
I45
sg671
I41
sg672
I40
sg673
I40
sg674
I38
sg675
I43
sg676
I39
sg677
I39
sg678
I42
sg679
I42
sg680
I42
sg681
I36
sg682
I46
sg683
I37
sg684
I44
sg685
I45
sg686
I43
sg687
I40
sg688
I38
sg689
I40
sg690
I38
sg691
I45
sg692
I38
sg693
I36
sg694
I45
sg695
I48
sg696
I36
sg697
I37
sg698
I42
sg699
I39
sg700
I50
sg701
I36
sg702
I48
sg703
I41
sg704
I44
sg705
I40
sg706
I43
sg707
I36
sg708
I47
sg709
I36
sg710
I44
sg711
I48
sg712
I38
sg713
I43
sg714
I36
sg715
I37
sg716
I38
sg717
I50
sg718
I38
sg719
I39
sg720
I38
sg721
I47
sg722
I35
sg723
I42
sg724
I36
sg725
I31
sg726
I42
sg727
I39
sg728
I39
sg729
I47
sg730
I39
sg731
I38
sg732
I41
sg733
I47
sg734
I36
sg735
I44
sg736
I33
sg737
I45
sg738
I46
sg739
I42
sg740
I32
sg741
I38
sg742
I42
sg743
I38
sg744
I43
sg745
I37
sg746
I43
sg747
I44
sg748
I41
sg749
I38
sg750
I41
sg751
I41
sg752
I37
sg753
I44
sg754
I46
sg755
I44
sg756
I40
sg757
I40
sg758
I46
sg759
I47
sg760
I36
sg761
I46
sg762
I36
sg763
I45
sg764
I39
sg765
I47
sg766
I37
sg767
I45
sg768
I39
sg769
I43
sg770
I40
sg771
I48
sg772
I41
sg773
I41
sg774
I41
sg775
I43
sg776
I42
sg777
I39
sg778
I43
sg779
I45
sg780
I37
sg781
I33
sg782
I47
sg783
I40
sg784
I42
sg785
I38
sg786
I35
sg787
I39
sg788
I43
sg789
I44
sg790
I39
sg791
I47
sg792
I40
sg793
I38
sg794
I43
sg795
I41
sg796
I45
sg797
I43
sg798
I45
sg799
I42
sg800
I46
sg801
I42
sg802
I39
sg803
I44
sg804
I46
sg805
I47
sg806
I39
sg807
I45
sg808
I42
sg809
I39
sg810
I42
sg811
I41
sg812
I36
sg813
I34
sg814
I40
sg815
I43
sg816
I49
sg817
I49
sg818
I42
sg819
I48
sg820
I43
sg821
I32
sg822
I41
sg823
I30
sg824
I34
sg825
I43
sg826
I40
sg827
I41
sg828
I44
sg829
I43
sg830
I46
sg831
I45
sg832
I35
sg833
I40
sg834
I38
sg835
I41
sg836
I42
sg837
I34
sg838
I41
sg839
I37
sg840
I41
sg841
I41
sg842
I50
sg843
I42
sg844
I35
sg845
I43
sg846
I46
sg847
I40
sg848
I47
sg849
I39
sg850
I42
sg851
I43
sg852
I43
sg853
I43
sg854
I39
sg855
I34
sg856
I49
sg857
I37
sg858
I50
sg859
I46
sg860
I42
sg861
I39
sg862
I40
sg863
I39
sg864
I44
sg865
I39
sg866
I34
sg867
I39
sg868
I47
sg869
I46
sg870
I43
sg871
I37
sg872
I40
sg873
I36
sg874
I45
sg875
I37
sg876
I41
sg877
I39
sg878
I45
sg879
I41
sg880
I36
sg881
I39
sg882
I45
sg883
I46
sg884
I38
sg885
I40
sg886
I41
sg887
I43
sg888
I40
sg889
I45
sg890
I40
sg891
I33
sg892
I39
sg893
I48
sg894
I47
sg895
I46
sg896
I50
sg897
I44
sg898
I40
sg899
I39
sg900
I42
sg901
I37
sg902
I43
sg903
I46
sg904
I37
sg905
I38
sg906
I41
sg907
I41
sg908
I46
sg909
I36
sg910
I49
sg911
I45
sg912
I34
sg913
I36
sg914
I42
sg915
I37
sg916
I46
sg917
I32
sg918
I34
sg919
I42
sg920
I40
sg921
I46
sg922
I40
sg923
I33
sg924
I35
sg925
I44
sg926
I45
sg927
I42
sg928
I44
sg929
I42
sg930
I43
sg931
I49
sg932
I37
sg933
I44
sg934
I40
sg935
I38
sg936
I40
sg937
I37
sg938
I43
sg939
I36
sg940
I43
sg941
I43
sg942
I50
sg943
I34
sg944
I37
sg945
I37
sg946
I43
sg947
I41
sg948
I40
sg949
I49
sg950
I40
sg951
I45
sg952
I34
sg953
I39
sg954
I38
sg955
I47
sg956
I40
sg957
I41
sg958
I39
sg959
I44
sg960
I42
sg961
I42
sg962
I42
sg963
I43
sg964
I42
sg965
I44
sg966
I48
sg967
I43
sg968
I42
sg969
I42
sg970
I33
sg971
I38
sg972
I43
sg973
I40
sg974
I49
sg975
I33
sg976
I44
sg977
I46
sg978
I40
sg979
I42
sg980
I36
sg981
I46
sg982
I41
sg983
I31
sg984
I45
sg985
I43
sg986
I41
sg987
I40
sg988
I43
sg989
I47
sg990
I43
sg991
I38
sg992
I36
sg993
I34
sg994
I38
sg995
I40
sg996
I36
sg997
I31
sg998
I41
sg999
I43
sg1000
I36
sg1001
I44
sg1002
I34
sg1003
I39
sg1004
I43
sg1005
I44
sg1006
I39
sg1007
I44
sg1008
I37
sg1009
I37
sg1010
I50
sg1011
I48
sg1012
I38
sg1013
I47
sg1014
I41
sg1015
I35
sg1016
I39
sg1017
I36
sg1018
I41
sg1019
I41
sg1020
I42
sg1021
I41
sg1022
I46
sg1023
I44
sg1024
I37
sg1025
I40
sg1026
I40
sg1027
I40
sg1028
I40
sg1029
I37
sg1030
I43
sg1031
I40
sg1032
I40
sg1033
I40
sg1034
I39
sg1035
I44
sg1036
I38
sg1037
I33
sg1038
I40
sg1039
I34
sg1040
I41
sg1041
I52
sg1042
I42
sg1043
I41
sg1044
I38
sg1045
I45
sg1046
I37
sg1047
I39
sg1048
I44
sg1049
I50
sg1050
I37
sg1051
I43
sg1052
I32
sg1053
I39
sg1054
I38
sg1055
I37
sg1056
I44
sg1057
I39
sg1058
I37
sg1059
I37
sg1060
I41
sg1061
I40
sg1062
I40
sg1063
I40
sg1064
I35
sg1065
I42
sg1066
I39
sg1067
I34
sg1068
I37
sg1069
I45
sg1070
I44
sg1071
I38
sg1072
I43
sg1073
I40
sg1074
I38
sg1075
I38
sg1076
I47
sg1077
I42
sg1078
I39
sg1079
I43
sg1080
I45
sg1081
I38
sg1082
I40
sg1083
I41
sg1084
I47
sg1085
I40
sg1086
I43
sg1087
I41
sg1088
I44
sg1089
I39
sg1090
I41
sg1091
I43
sg1092
I33
sg1093
I38
sg1094
I36
sg1095
I38
sg1096
I32
sg1097
I39
sg1098
I37
sg1099
I47
sg1100
I36
sg1101
I37
sg1102
I34
sg1103
I45
sg1104
I37
sg1105
I39
sg1106
I43
sg1107
I50
sg1108
I45
sg1109
I38
sg1110
I39
sg1111
I37
sg1112
I38
sg1113
I44
sg1114
I37
sg1115
I38
sg1116
I43
sg1117
I41
sg1118
I47
sg1119
I50
sg1120
I41
sg1121
I38
sg1122
I45
sg1123
I39
sg1124
I34
sg1125
I33
sg1126
I34
sg1127
I40
sg1128
I45
sg1129
I44
sg1130
I41
sg1131
I36
sg1132
I38
sg1133
I43
sg1134
I39
sg1135
I46
sg1136
I42
sg1137
I45
sg1138
I45
sg1139
I38
sg1140
I39
sg1141
I39
sg1142
I37
sg1143
I33
sg1144
I33
sg1145
I41
sg1146
I35
sg1147
I43
sg1148
I44
sg1149
I52
sg1150
I39
sg1151
I35
sg1152
I35
sg1153
I48
sg1154
I45
sg1155
I36
sg1156
I44
sg1157
I42
sg1158
I45
sg1159
I44
sg1160
I42
sg1161
I39
sg1162
I37
sg1163
I36
sg1164
I46
sg1165
I43
sg1166
I35
sg1167
I39
sg1168
I44
sg1169
I38
sg1170
I43
sg1171
I41
sg1172
I43
sg1173
I45
sg1174
I38
sg1175
I35
sg1176
I45
sg1177
I36
sg1178
I45
sg1179
I46
sg1180
I47
sg1181
I37
sg1182
I38
sg1183
I43
sg1184
I48
sg1185
I43
sg1186
I44
sg1187
I38
sg1188
I42
sg1189
I42
sg1190
I36
sg1191
I42
sg1192
I38
sg1193
I43
sg1194
I40
sg1195
I49
sg1196
I45
sg1197
I36
sg1198
I42
sg1199
I48
sg1200
I38
sg1201
I40
sg1202
I41
sg1203
I41
sg1204
I41
sg1205
I43
sg1206
I35
sg1207
I41
sg1208
I40
sg1209
I42
sg1210
I42
sg1211
I39
sg1212
I39
sg1213
I47
sg1214
I41
sg1215
I35
sg1216
I36
sg1217
I40
sg1218
I32
sg1219
I42
sg1220
I38
sg1221
I36
sg1222
I38
sg1223
I34
sg1224
I33
sg1225
I38
sg1226
I43
sg1227
I46
sg1228
I48
sg1229
I36
sg1230
I47
sg1231
I39
sg1232
I46
sg1233
I35
sg1234
I38
sg1235
I41
sg1236
I44
sg1237
I47
sg1238
I39
sg1239
I47
sg1240
I44
sg1241
I38
sg1242
I40
sg1243
I45
sg1244
I41
sg1245
I42
sg1246
I36
sg1247
I39
sg1248
I36
sg1249
I49
sg1250
I47
sg1251
I42
sg1252
I45
sg1253
I38
sg1254
I39
sg1255
I46
sg1256
I35
sg1257
I42
sg1258
I42
sg1259
I38
sg1260
I43
sg1261
I50
sg1262
I34
sg1263
I37
sg1264
I46
sg1265
I38
sg1266
I46
sg1267
I33
sg1268
I38
sg1269
I35
sg1270
I43
sg1271
I42
sg1272
I47
sg1273
I41
sg1274
I40
sg1275
I38
sg1276
I44
sg1277
I54
sg1278
I40
sg1279
I48
sg1280
I36
sg1281
I39
sg1282
I38
sg1283
I47
sg1284
I45
sg1285
I43
sg1286
I50
sg1287
I43
sg1288
I42
sg1289
I38
sg1290
I33
sg1291
I42
sg1292
I43
sg1293
I44
sg1294
I44
sg1295
I36
sg1296
I41
sg1297
I47
sg1298
I42
sg1299
I35
sg1300
I47
sg1301
I41
sg1302
I41
sg1303
I41
sg1304
I51
sg1305
I41
sg1306
I43
sg1307
I40
sg1308
I34
sg1309
I47
sg1310
I43
sg1311
I38
sg1312
I40
sg1313
I39
sg1314
I36
sg1315
I45
sg1316
I48
sg1317
I41
sg1318
I37
sg1319
I33
sg1320
I38
sg1321
I37
sg1322
I42
sg1323
I42
sg1324
I36
sg1325
I37
sg1326
I37
sg1327
I45
sg1328
I35
sg1329
I43
sg1330
I32
sg1331
I36
sg1332
I39
sg1333
I38
sg1334
I41
sg1335
I44
sg1336
I40
sg1337
I37
sg1338
I38
sg1339
I39
sg1340
I38
sg1341
I40
sg1342
I40
sg1343
I47
sg1344
I49
sg1345
I35
sg1346
I35
sg1347
I44
sg1348
I40
sg1349
I42
sg1350
I40
sg1351
I37
sg1352
I33
sg1353
I45
sg1354
I38
sg1355
I42
sg1356
I42
sg1357
I41
sg1358
I39
sg1359
I36
sg1360
I40
sg1361
I41
sg1362
I37
sg1363
I38
sg1364
I39
sg1365
I43
sg1366
I42
sg1367
I43
sg1368
I40
sg1369
I39
sg1370
I39
sg1371
I38
sg1372
I32
sg1373
I44
sg1374
I38
sg1375
I37
sg1376
I47
sg1377
I48
sg1378
I41
sg1379
I35
sg1380
I34
sg1381
I39
sg1382
I43
sg1383
I43
sg1384
I38
sg1385
I38
sg1386
I40
sg1387
I43
sg1388
I40
sg1389
I38
sg1390
I44
sg1391
I45
sg1392
I42
sg1393
I41
sg1394
I44
sg1395
I35
sg1396
I38
sg1397
I41
sg1398
I48
sg1399
I41
sg1400
I45
sg1401
I40
sg1402
I43
sg1403
I35
sg1404
I45
sg1405
I38
sg1406
I38
sg1407
I46
sg1408
I42
sg1409
I38
sg1410
I50
sg1411
I40
sg1412
I39
sg1413
I46
sg1414
I42
sg1415
I42
sg1416
I45
sg1417
I37
sg1418
I41
sg1419
I41
sg1420
I36
sg1421
I49
sg1422
I49
sg1423
I34
sg1424
I40
sg1425
I40
sg1426
I41
sg1427
I42
sg1428
I36
sg1429
I47
sg1430
I34
sg1431
I43
sg1432
I40
sg1433
I44
sg1434
I39
sg1435
I40
sg1436
I45
sg1437
I42
sg1438
I44
sg1439
I39
sg1440
I38
sg1441
I41
sg1442
I48
sg1443
I33
sg1444
I37
sg1445
I44
sg1446
I37
sg1447
I43
sg1448
I42
sg1449
I43
sg1450
I42
sg1451
I41
sg1452
I45
sg1453
I36
sg1454
I37
sg1455
I36
sg1456
I44
sg1457
I40
sg1458
I40
sg1459
I41
sg1460
I43
sg1461
I44
sg1462
I39
sg1463
I32
sg1464
I41
sg1465
I42
sg1466
I41
sg1467
I40
sg1468
I37
sg1469
I40
sg1470
I41
sg1471
I38
sg1472
I41
sg1473
I37
sg1474
I36
sg1475
I41
sg1476
I34
sg1477
I44
sg1478
I35
sg1479
I43
sg1480
I40
sg1481
I45
sg1482
I40
sg1483
I38
sg1484
I37
sg1485
I43
sg1486
I37
sg1487
I46
sg1488
I43
sg1489
I37
sg1490
I39
sg1491
I35
sg1492
I42
sg1493
I41
sg1494
I48
sg1495
I43
sg1496
I44
sg1497
I42
sg1498
I35
sg1499
I42
sg1500
I40
sg1501
I45
sg1502
I44
sg1503
I45
sg1504
I49
sg1505
I41
sg1506
I40
sg1507
I40
sg1508
I39
sg1509
I38
sg1510
I39
sg1511
I37
sg1512
I37
sg1513
I39
sg1514
I42
sg1515
I44
sg1516
I47
sg1517
I44
sg1518
I41
sg1519
I41
sg1520
I39
sg1521
I37
sg1522
I36
sg1523
I41
sg1524
I38
sg1525
I36
sg1526
I43
sg1527
I47
sg1528
I43
sg1529
I43
sg1530
I46
sg1531
I40
sg1532
I44
sg1533
I40
sg1534
I43
sg1535
I43
sg1536
I44
sg1537
I39
sg1538
I42
sg1539
I38
sg1540
I39
sg1541
I42
sg1542
I48
sg1543
I41
sg1544
I37
sg1545
I41
sg1546
I49
sg1547
I42
sg1548
I33
sg1549
I39
sg1550
I43
sg1551
I42
sg1552
I38
sg1553
I38
sg1554
I40
sg1555
I43
sg1556
I45
sg1557
I44
sg1558
I38
sg1559
I35
sg1560
I39
sg1561
I41
sg1562
I37
sg1563
I42
sg1564
I46
sg1565
I40
sg1566
I43
sg1567
I39
sg1568
I43
sg1569
I40
sg1570
I42
sg1571
I35
sg1572
I47
sg1573
I34
sg1574
I40
sg1575
I42
sg1576
I41
sg1577
I38
sg1578
I43
sg1579
I43
sg1580
I41
sg1581
I33
sg1582
I39
sg1583
I41
sg1584
I43
sg1585
I42
sg1586
I36
sg1587
I35
sg1588
I42
sg1589
I42
sg1590
I46
sg1591
I41
sg1592
I32
sg1593
I39
sg1594
I45
sg1595
I40
sg1596
I46
sg1597
I42
sg1598
I43
sg1599
I40
sg1600
I38
sg1601
I43
sg1602
I35
sg1603
I40
sg1604
I41
sg1605
I49
sg1606
I41
sg1607
I44
sg1608
I42
sg1609
I44
sg1610
I33
sg1611
I38
sg1612
I43
sg1613
I38
sg1614
I42
sg1615
I41
sg1616
I36
sg1617
I41
sg1618
I44
sg1619
I39
sg1620
I33
sg1621
I35
sg1622
I38
sg1623
I39
sg1624
I39
sg1625
I38
sg1626
I41
sg1627
I41
sg1628
I40
sg1629
I39
sg1630
I41
sg1631
I44
sg1632
I45
sg1633
I35
sg1634
I44
sg1635
I41
sg1636
I43
sg1637
I41
sg1638
I43
sg1639
I37
sg1640
I37
sg1641
I42
sg1642
I41
sg1643
I40
sg1644
I39
sg1645
I40
sg1646
I35
sg1647
I40
sg1648
I50
sg1649
I44
sg1650
I43
sg1651
I40
sg1652
I43
sg1653
I43
sg1654
I38
sg1655
I39
sg1656
I42
sg1657
I39
sg1658
I43
sg1659
I48
sg1660
I40
sg1661
I41
sg1662
I39
sg1663
I43
sg1664
I28
sg1665
I42
sg1666
I43
sg1667
I31
sg1668
I39
sg1669
I42
sg1670
I43
sg1671
I40
sg1672
I40
sg1673
I41
sg1674
I43
sg1675
I38
sg1676
I40
sg1677
I44
sg1678
I43
sg1679
I42
sg1680
I44
sg1681
I43
sg1682
I37
sg1683
I46
sg1684
I38
sg1685
I43
sg1686
I37
sg1687
I35
sg1688
I37
sg1689
I40
sg1690
I41
sg1691
I42
sg1692
I38
sg1693
I41
sg1694
I41
sg1695
I39
sg1696
I38
sg1697
I42
sg1698
I33
sg1699
I49
sg1700
I39
sg1701
I45
sg1702
I44
sg1703
I38
sg1704
I36
sg1705
I45
sg1706
I36
sg1707
I37
sg1708
I43
sg1709
I44
sg1710
I38
sg1711
I44
sg1712
I41
sg1713
I46
sg1714
I43
sg1715
I47
sg1716
I42
sg1717
I43
sg1718
I45
sg1719
I47
sg1720
I38
sg1721
I39
sg1722
I40
sg1723
I44
sg1724
I47
sg1725
I41
sg1726
I46
sg1727
I39
sg1728
I38
sg1729
I40
sg1730
I35
sg1731
I41
sg1732
I45
sg1733
I41
sg1734
I43
sg1735
I42
sg1736
I38
sg1737
I41
sg1738
I39
sg1739
I37
sg1740
I43
sg1741
I38
sg1742
I38
sg1743
I44
sg1744
I40
sg1745
I43
sg1746
I41
sg1747
I49
sg1748
I42
sg1749
I40
sg1750
I42
sg1751
I36
sg1752
I34
sg1753
I40
sg1754
I40
sg1755
I45
sg1756
I42
sg1757
I34
sg1758
I31
sg1759
I43
sg1760
I38
sg1761
I41
sg1762
I42
sg1763
I33
sg1764
I36
sg1765
I46
sg1766
I34
sg1767
I46
sg1768
I37
sg1769
I44
sg1770
I42
sg1771
I41
sg1772
I39
sg1773
I37
sg1774
I39
sg1775
I40
sg1776
I39
sg1777
I38
sg1778
I44
sg1779
I40
sg1780
I41
sg1781
I41
sg1782
I40
sg1783
I42
sg1784
I36
sg1785
I45
sg1786
I36
sg1787
I49
sg1788
I42
sg1789
I41
sg1790
I38
sg1791
I44
sg1792
I38
sg1793
I42
sg1794
I37
sg1795
I43
sg1796
I49
sg1797
I45
sg1798
I39
sg1799
I39
sg1800
I43
sg1801
I40
ssS'Q4'
p1806
(dp1807
g3
I42
sg4
I34
sg5
I36
sg6
I37
sg7
I36
sg8
I33
sg9
I41
sg10
I38
sg11
I39
sg12
I45
sg13
I32
sg14
I36
sg15
I42
sg16
I30
sg17
I38
sg18
I36
sg19
I40
sg20
I33
sg21
I38
sg22
I37
sg23
I37
sg24
I42
sg25
I41
sg26
I40
sg27
I33
sg28
I39
sg29
I46
sg30
I42
sg31
I41
sg32
I36
sg33
I31
sg34
I43
sg35
I43
sg36
I46
sg37
I34
sg38
I40
sg39
I37
sg40
I40
sg41
I43
sg42
I44
sg43
I31
sg44
I46
sg45
I40
sg46
I34
sg47
I46
sg48
I32
sg49
I35
sg50
I42
sg51
I39
sg52
I45
sg53
I36
sg54
I31
sg55
I37
sg56
I43
sg57
I43
sg58
I37
sg59
I39
sg60
I40
sg61
I43
sg62
I38
sg63
I33
sg64
I43
sg65
I38
sg66
I37
sg67
I32
sg68
I41
sg69
I33
sg70
I33
sg71
I37
sg72
I38
sg73
I42
sg74
I39
sg75
I39
sg76
I40
sg77
I35
sg78
I37
sg79
I38
sg80
I38
sg81
I40
sg82
I38
sg83
I40
sg84
I34
sg85
I38
sg86
I36
sg87
I48
sg88
I41
sg89
I35
sg90
I45
sg91
I33
sg92
I39
sg93
I46
sg94
I40
sg95
I32
sg96
I43
sg97
I41
sg98
I31
sg99
I30
sg100
I43
sg101
I31
sg102
I38
sg103
I47
sg104
I42
sg105
I33
sg106
I40
sg107
I37
sg108
I44
sg109
I46
sg110
I34
sg111
I38
sg112
I37
sg113
I40
sg114
I35
sg115
I44
sg116
I38
sg117
I40
sg118
I47
sg119
I38
sg120
I38
sg121
I43
sg122
I34
sg123
I37
sg124
I41
sg125
I35
sg126
I36
sg127
I41
sg128
I41
sg129
I37
sg130
I35
sg131
I40
sg132
I39
sg133
I44
sg134
I39
sg135
I28
sg136
I37
sg137
I31
sg138
I43
sg139
I35
sg140
I43
sg141
I47
sg142
I43
sg143
I36
sg144
I31
sg145
I35
sg146
I41
sg147
I42
sg148
I47
sg149
I42
sg150
I35
sg151
I37
sg152
I36
sg153
I40
sg154
I42
sg155
I37
sg156
I29
sg157
I34
sg158
I34
sg159
I43
sg160
I41
sg161
I39
sg162
I32
sg163
I44
sg164
I39
sg165
I36
sg166
I37
sg167
I42
sg168
I44
sg169
I50
sg170
I42
sg171
I44
sg172
I35
sg173
I40
sg174
I43
sg175
I37
sg176
I44
sg177
I46
sg178
I34
sg179
I34
sg180
I42
sg181
I43
sg182
I36
sg183
I36
sg184
I34
sg185
I40
sg186
I40
sg187
I34
sg188
I36
sg189
I43
sg190
I33
sg191
I42
sg192
I41
sg193
I39
sg194
I33
sg195
I36
sg196
I45
sg197
I35
sg198
I33
sg199
I36
sg200
I37
sg201
I38
sg202
I37
sg203
I42
sg204
I30
sg205
I36
sg206
I45
sg207
I35
sg208
I39
sg209
I36
sg210
I46
sg211
I42
sg212
I35
sg213
I37
sg214
I42
sg215
I35
sg216
I44
sg217
I35
sg218
I42
sg219
I37
sg220
I40
sg221
I38
sg222
I40
sg223
I40
sg224
I35
sg225
I40
sg226
I39
sg227
I36
sg228
I39
sg229
I41
sg230
I31
sg231
I37
sg232
I34
sg233
I42
sg234
I33
sg235
I39
sg236
I37
sg237
I42
sg238
I47
sg239
I42
sg240
I29
sg241
I47
sg242
I37
sg243
I39
sg244
I36
sg245
I53
sg246
I29
sg247
I35
sg248
I38
sg249
I40
sg250
I36
sg251
I40
sg252
I36
sg253
I39
sg254
I39
sg255
I36
sg256
I42
sg257
I35
sg258
I35
sg259
I35
sg260
I44
sg261
I45
sg262
I46
sg263
I39
sg264
I41
sg265
I35
sg266
I35
sg267
I33
sg268
I47
sg269
I42
sg270
I31
sg271
I41
sg272
I36
sg273
I40
sg274
I42
sg275
I38
sg276
I38
sg277
I27
sg278
I36
sg279
I36
sg280
I49
sg281
I43
sg282
I45
sg283
I35
sg284
I41
sg285
I40
sg286
I39
sg287
I41
sg288
I36
sg289
I41
sg290
I41
sg291
I38
sg292
I41
sg293
I39
sg294
I39
sg295
I32
sg296
I41
sg297
I32
sg298
I35
sg299
I40
sg300
I37
sg301
I36
sg302
I36
sg303
I35
sg304
I44
sg305
I40
sg306
I43
sg307
I42
sg308
I40
sg309
I36
sg310
I35
sg311
I32
sg312
I42
sg313
I41
sg314
I32
sg315
I43
sg316
I38
sg317
I38
sg318
I37
sg319
I38
sg320
I39
sg321
I37
sg322
I39
sg323
I33
sg324
I43
sg325
I37
sg326
I38
sg327
I35
sg328
I38
sg329
I46
sg330
I42
sg331
I37
sg332
I36
sg333
I37
sg334
I40
sg335
I32
sg336
I34
sg337
I41
sg338
I31
sg339
I44
sg340
I33
sg341
I39
sg342
I39
sg343
I38
sg344
I37
sg345
I34
sg346
I38
sg347
I41
sg348
I39
sg349
I41
sg350
I37
sg351
I34
sg352
I35
sg353
I40
sg354
I38
sg355
I38
sg356
I39
sg357
I33
sg358
I35
sg359
I43
sg360
I43
sg361
I39
sg362
I45
sg363
I43
sg364
I42
sg365
I38
sg366
I36
sg367
I41
sg368
I32
sg369
I48
sg370
I33
sg371
I35
sg372
I39
sg373
I38
sg374
I36
sg375
I35
sg376
I38
sg377
I42
sg378
I40
sg379
I40
sg380
I34
sg381
I35
sg382
I43
sg383
I40
sg384
I37
sg385
I39
sg386
I37
sg387
I37
sg388
I40
sg389
I35
sg390
I40
sg391
I34
sg392
I44
sg393
I50
sg394
I45
sg395
I41
sg396
I37
sg397
I36
sg398
I36
sg399
I35
sg400
I35
sg401
I46
sg402
I34
sg403
I28
sg404
I43
sg405
I44
sg406
I43
sg407
I40
sg408
I36
sg409
I42
sg410
I38
sg411
I36
sg412
I40
sg413
I38
sg414
I45
sg415
I39
sg416
I47
sg417
I34
sg418
I43
sg419
I37
sg420
I41
sg421
I43
sg422
I39
sg423
I45
sg424
I40
sg425
I47
sg426
I39
sg427
I40
sg428
I39
sg429
I43
sg430
I42
sg431
I35
sg432
I41
sg433
I41
sg434
I50
sg435
I34
sg436
I42
sg437
I38
sg438
I42
sg439
I32
sg440
I41
sg441
I47
sg442
I32
sg443
I38
sg444
I35
sg445
I40
sg446
I44
sg447
I45
sg448
I36
sg449
I38
sg450
I40
sg451
I42
sg452
I44
sg453
I43
sg454
I44
sg455
I37
sg456
I40
sg457
I39
sg458
I33
sg459
I43
sg460
I37
sg461
I35
sg462
I31
sg463
I46
sg464
I38
sg465
I36
sg466
I32
sg467
I45
sg468
I38
sg469
I35
sg470
I36
sg471
I34
sg472
I38
sg473
I34
sg474
I40
sg475
I37
sg476
I39
sg477
I37
sg478
I38
sg479
I46
sg480
I43
sg481
I40
sg482
I37
sg483
I43
sg484
I38
sg485
I40
sg486
I41
sg487
I42
sg488
I36
sg489
I47
sg490
I47
sg491
I43
sg492
I39
sg493
I46
sg494
I31
sg495
I40
sg496
I42
sg497
I43
sg498
I37
sg499
I40
sg500
I34
sg501
I38
sg502
I48
sg503
I38
sg504
I37
sg505
I31
sg506
I44
sg507
I36
sg508
I35
sg509
I43
sg510
I41
sg511
I34
sg512
I36
sg513
I34
sg514
I42
sg515
I36
sg516
I40
sg517
I38
sg518
I44
sg519
I33
sg520
I44
sg521
I40
sg522
I35
sg523
I40
sg524
I38
sg525
I36
sg526
I36
sg527
I40
sg528
I47
sg529
I35
sg530
I35
sg531
I37
sg532
I42
sg533
I42
sg534
I40
sg535
I43
sg536
I34
sg537
I36
sg538
I39
sg539
I39
sg540
I47
sg541
I36
sg542
I32
sg543
I38
sg544
I41
sg545
I40
sg546
I39
sg547
I38
sg548
I42
sg549
I31
sg550
I43
sg551
I48
sg552
I41
sg553
I47
sg554
I38
sg555
I39
sg556
I41
sg557
I45
sg558
I42
sg559
I37
sg560
I30
sg561
I39
sg562
I37
sg563
I36
sg564
I43
sg565
I33
sg566
I48
sg567
I33
sg568
I34
sg569
I40
sg570
I43
sg571
I39
sg572
I40
sg573
I38
sg574
I38
sg575
I45
sg576
I39
sg577
I34
sg578
I34
sg579
I39
sg580
I37
sg581
I37
sg582
I40
sg583
I39
sg584
I33
sg585
I43
sg586
I33
sg587
I37
sg588
I42
sg589
I39
sg590
I39
sg591
I34
sg592
I35
sg593
I36
sg594
I44
sg595
I36
sg596
I32
sg597
I39
sg598
I28
sg599
I46
sg600
I37
sg601
I36
sg602
I41
sg603
I44
sg604
I41
sg605
I32
sg606
I31
sg607
I37
sg608
I37
sg609
I42
sg610
I44
sg611
I39
sg612
I42
sg613
I41
sg614
I38
sg615
I39
sg616
I42
sg617
I41
sg618
I40
sg619
I44
sg620
I41
sg621
I34
sg622
I43
sg623
I36
sg624
I42
sg625
I41
sg626
I44
sg627
I37
sg628
I37
sg629
I39
sg630
I39
sg631
I34
sg632
I32
sg633
I45
sg634
I40
sg635
I43
sg636
I39
sg637
I39
sg638
I35
sg639
I37
sg640
I39
sg641
I37
sg642
I39
sg643
I39
sg644
I33
sg645
I30
sg646
I38
sg647
I38
sg648
I41
sg649
I41
sg650
I34
sg651
I39
sg652
I37
sg653
I41
sg654
I36
sg655
I39
sg656
I42
sg657
I33
sg658
I37
sg659
I36
sg660
I42
sg661
I37
sg662
I37
sg663
I35
sg664
I41
sg665
I40
sg666
I41
sg667
I38
sg668
I36
sg669
I32
sg670
I39
sg671
I36
sg672
I33
sg673
I40
sg674
I32
sg675
I44
sg676
I40
sg677
I33
sg678
I42
sg679
I43
sg680
I40
sg681
I41
sg682
I43
sg683
I44
sg684
I42
sg685
I37
sg686
I39
sg687
I41
sg688
I41
sg689
I34
sg690
I38
sg691
I42
sg692
I34
sg693
I37
sg694
I44
sg695
I41
sg696
I35
sg697
I43
sg698
I37
sg699
I36
sg700
I40
sg701
I35
sg702
I37
sg703
I38
sg704
I38
sg705
I40
sg706
I38
sg707
I44
sg708
I38
sg709
I42
sg710
I36
sg711
I39
sg712
I41
sg713
I42
sg714
I39
sg715
I41
sg716
I36
sg717
I40
sg718
I39
sg719
I44
sg720
I40
sg721
I37
sg722
I40
sg723
I39
sg724
I43
sg725
I39
sg726
I37
sg727
I35
sg728
I39
sg729
I36
sg730
I34
sg731
I32
sg732
I26
sg733
I36
sg734
I50
sg735
I40
sg736
I39
sg737
I39
sg738
I39
sg739
I35
sg740
I34
sg741
I38
sg742
I40
sg743
I32
sg744
I36
sg745
I42
sg746
I25
sg747
I40
sg748
I35
sg749
I45
sg750
I36
sg751
I44
sg752
I42
sg753
I45
sg754
I37
sg755
I41
sg756
I41
sg757
I41
sg758
I38
sg759
I43
sg760
I39
sg761
I40
sg762
I39
sg763
I33
sg764
I31
sg765
I37
sg766
I39
sg767
I39
sg768
I40
sg769
I34
sg770
I43
sg771
I34
sg772
I43
sg773
I38
sg774
I43
sg775
I41
sg776
I30
sg777
I40
sg778
I40
sg779
I41
sg780
I33
sg781
I41
sg782
I39
sg783
I40
sg784
I38
sg785
I41
sg786
I44
sg787
I38
sg788
I43
sg789
I44
sg790
I34
sg791
I35
sg792
I36
sg793
I46
sg794
I37
sg795
I42
sg796
I38
sg797
I41
sg798
I39
sg799
I41
sg800
I42
sg801
I37
sg802
I29
sg803
I36
sg804
I40
sg805
I40
sg806
I38
sg807
I41
sg808
I36
sg809
I39
sg810
I37
sg811
I38
sg812
I41
sg813
I38
sg814
I32
sg815
I41
sg816
I36
sg817
I37
sg818
I44
sg819
I36
sg820
I40
sg821
I38
sg822
I36
sg823
I35
sg824
I42
sg825
I30
sg826
I35
sg827
I38
sg828
I33
sg829
I38
sg830
I41
sg831
I37
sg832
I37
sg833
I40
sg834
I42
sg835
I39
sg836
I37
sg837
I42
sg838
I39
sg839
I46
sg840
I35
sg841
I43
sg842
I41
sg843
I39
sg844
I36
sg845
I38
sg846
I46
sg847
I35
sg848
I41
sg849
I40
sg850
I38
sg851
I34
sg852
I43
sg853
I44
sg854
I41
sg855
I36
sg856
I41
sg857
I41
sg858
I41
sg859
I41
sg860
I41
sg861
I39
sg862
I38
sg863
I32
sg864
I35
sg865
I41
sg866
I40
sg867
I35
sg868
I37
sg869
I39
sg870
I38
sg871
I40
sg872
I37
sg873
I41
sg874
I42
sg875
I32
sg876
I35
sg877
I36
sg878
I35
sg879
I45
sg880
I38
sg881
I43
sg882
I44
sg883
I35
sg884
I42
sg885
I42
sg886
I41
sg887
I40
sg888
I38
sg889
I46
sg890
I34
sg891
I39
sg892
I39
sg893
I41
sg894
I43
sg895
I44
sg896
I39
sg897
I37
sg898
I33
sg899
I38
sg900
I48
sg901
I44
sg902
I40
sg903
I38
sg904
I44
sg905
I31
sg906
I30
sg907
I39
sg908
I36
sg909
I38
sg910
I43
sg911
I35
sg912
I31
sg913
I40
sg914
I42
sg915
I35
sg916
I39
sg917
I34
sg918
I35
sg919
I38
sg920
I47
sg921
I42
sg922
I34
sg923
I39
sg924
I44
sg925
I40
sg926
I49
sg927
I34
sg928
I44
sg929
I45
sg930
I39
sg931
I38
sg932
I36
sg933
I44
sg934
I34
sg935
I37
sg936
I32
sg937
I32
sg938
I40
sg939
I36
sg940
I42
sg941
I43
sg942
I48
sg943
I36
sg944
I41
sg945
I38
sg946
I39
sg947
I44
sg948
I30
sg949
I42
sg950
I40
sg951
I37
sg952
I37
sg953
I44
sg954
I38
sg955
I40
sg956
I36
sg957
I39
sg958
I45
sg959
I39
sg960
I38
sg961
I43
sg962
I36
sg963
I32
sg964
I47
sg965
I36
sg966
I42
sg967
I42
sg968
I44
sg969
I34
sg970
I44
sg971
I38
sg972
I34
sg973
I38
sg974
I41
sg975
I42
sg976
I42
sg977
I40
sg978
I41
sg979
I37
sg980
I35
sg981
I40
sg982
I39
sg983
I30
sg984
I40
sg985
I45
sg986
I38
sg987
I37
sg988
I35
sg989
I34
sg990
I46
sg991
I40
sg992
I39
sg993
I38
sg994
I38
sg995
I39
sg996
I41
sg997
I34
sg998
I34
sg999
I37
sg1000
I43
sg1001
I40
sg1002
I41
sg1003
I45
sg1004
I35
sg1005
I41
sg1006
I33
sg1007
I34
sg1008
I42
sg1009
I37
sg1010
I44
sg1011
I42
sg1012
I38
sg1013
I48
sg1014
I39
sg1015
I36
sg1016
I36
sg1017
I37
sg1018
I47
sg1019
I38
sg1020
I35
sg1021
I39
sg1022
I36
sg1023
I36
sg1024
I30
sg1025
I41
sg1026
I45
sg1027
I35
sg1028
I37
sg1029
I36
sg1030
I40
sg1031
I40
sg1032
I36
sg1033
I36
sg1034
I40
sg1035
I34
sg1036
I41
sg1037
I42
sg1038
I37
sg1039
I41
sg1040
I38
sg1041
I38
sg1042
I46
sg1043
I38
sg1044
I40
sg1045
I36
sg1046
I36
sg1047
I43
sg1048
I41
sg1049
I43
sg1050
I37
sg1051
I34
sg1052
I33
sg1053
I39
sg1054
I36
sg1055
I42
sg1056
I38
sg1057
I43
sg1058
I41
sg1059
I39
sg1060
I34
sg1061
I44
sg1062
I42
sg1063
I34
sg1064
I38
sg1065
I45
sg1066
I36
sg1067
I36
sg1068
I40
sg1069
I39
sg1070
I44
sg1071
I36
sg1072
I39
sg1073
I41
sg1074
I41
sg1075
I37
sg1076
I42
sg1077
I43
sg1078
I37
sg1079
I41
sg1080
I35
sg1081
I27
sg1082
I40
sg1083
I34
sg1084
I33
sg1085
I37
sg1086
I37
sg1087
I43
sg1088
I37
sg1089
I40
sg1090
I44
sg1091
I40
sg1092
I38
sg1093
I41
sg1094
I32
sg1095
I38
sg1096
I40
sg1097
I42
sg1098
I40
sg1099
I38
sg1100
I33
sg1101
I39
sg1102
I42
sg1103
I36
sg1104
I39
sg1105
I32
sg1106
I43
sg1107
I47
sg1108
I45
sg1109
I34
sg1110
I37
sg1111
I37
sg1112
I36
sg1113
I43
sg1114
I39
sg1115
I38
sg1116
I44
sg1117
I37
sg1118
I36
sg1119
I44
sg1120
I33
sg1121
I36
sg1122
I49
sg1123
I42
sg1124
I35
sg1125
I42
sg1126
I37
sg1127
I41
sg1128
I38
sg1129
I42
sg1130
I42
sg1131
I44
sg1132
I44
sg1133
I38
sg1134
I41
sg1135
I40
sg1136
I41
sg1137
I38
sg1138
I44
sg1139
I34
sg1140
I35
sg1141
I41
sg1142
I39
sg1143
I46
sg1144
I36
sg1145
I40
sg1146
I39
sg1147
I44
sg1148
I37
sg1149
I39
sg1150
I33
sg1151
I38
sg1152
I37
sg1153
I43
sg1154
I39
sg1155
I35
sg1156
I40
sg1157
I37
sg1158
I41
sg1159
I38
sg1160
I47
sg1161
I43
sg1162
I41
sg1163
I44
sg1164
I37
sg1165
I38
sg1166
I36
sg1167
I39
sg1168
I36
sg1169
I36
sg1170
I45
sg1171
I35
sg1172
I39
sg1173
I46
sg1174
I37
sg1175
I34
sg1176
I42
sg1177
I35
sg1178
I37
sg1179
I47
sg1180
I37
sg1181
I37
sg1182
I38
sg1183
I36
sg1184
I42
sg1185
I38
sg1186
I42
sg1187
I37
sg1188
I46
sg1189
I45
sg1190
I34
sg1191
I41
sg1192
I32
sg1193
I41
sg1194
I41
sg1195
I49
sg1196
I42
sg1197
I43
sg1198
I39
sg1199
I39
sg1200
I35
sg1201
I34
sg1202
I38
sg1203
I38
sg1204
I37
sg1205
I35
sg1206
I40
sg1207
I37
sg1208
I33
sg1209
I40
sg1210
I40
sg1211
I39
sg1212
I34
sg1213
I38
sg1214
I42
sg1215
I34
sg1216
I41
sg1217
I36
sg1218
I38
sg1219
I41
sg1220
I34
sg1221
I44
sg1222
I39
sg1223
I35
sg1224
I38
sg1225
I36
sg1226
I43
sg1227
I40
sg1228
I37
sg1229
I41
sg1230
I41
sg1231
I37
sg1232
I43
sg1233
I39
sg1234
I42
sg1235
I33
sg1236
I41
sg1237
I45
sg1238
I39
sg1239
I41
sg1240
I39
sg1241
I46
sg1242
I39
sg1243
I30
sg1244
I42
sg1245
I33
sg1246
I36
sg1247
I36
sg1248
I35
sg1249
I41
sg1250
I37
sg1251
I32
sg1252
I46
sg1253
I32
sg1254
I51
sg1255
I42
sg1256
I42
sg1257
I45
sg1258
I41
sg1259
I42
sg1260
I38
sg1261
I46
sg1262
I37
sg1263
I37
sg1264
I43
sg1265
I39
sg1266
I42
sg1267
I35
sg1268
I36
sg1269
I40
sg1270
I43
sg1271
I37
sg1272
I44
sg1273
I38
sg1274
I42
sg1275
I36
sg1276
I38
sg1277
I42
sg1278
I32
sg1279
I39
sg1280
I36
sg1281
I37
sg1282
I39
sg1283
I46
sg1284
I39
sg1285
I36
sg1286
I39
sg1287
I38
sg1288
I40
sg1289
I39
sg1290
I39
sg1291
I40
sg1292
I36
sg1293
I32
sg1294
I42
sg1295
I36
sg1296
I43
sg1297
I40
sg1298
I48
sg1299
I34
sg1300
I41
sg1301
I41
sg1302
I41
sg1303
I43
sg1304
I49
sg1305
I37
sg1306
I41
sg1307
I33
sg1308
I42
sg1309
I35
sg1310
I43
sg1311
I36
sg1312
I35
sg1313
I33
sg1314
I36
sg1315
I37
sg1316
I44
sg1317
I38
sg1318
I41
sg1319
I34
sg1320
I44
sg1321
I35
sg1322
I40
sg1323
I38
sg1324
I37
sg1325
I36
sg1326
I45
sg1327
I48
sg1328
I38
sg1329
I40
sg1330
I33
sg1331
I41
sg1332
I41
sg1333
I43
sg1334
I38
sg1335
I36
sg1336
I43
sg1337
I34
sg1338
I43
sg1339
I42
sg1340
I38
sg1341
I42
sg1342
I29
sg1343
I50
sg1344
I45
sg1345
I37
sg1346
I36
sg1347
I45
sg1348
I42
sg1349
I40
sg1350
I39
sg1351
I37
sg1352
I40
sg1353
I40
sg1354
I42
sg1355
I41
sg1356
I36
sg1357
I39
sg1358
I34
sg1359
I42
sg1360
I41
sg1361
I38
sg1362
I45
sg1363
I42
sg1364
I36
sg1365
I42
sg1366
I39
sg1367
I40
sg1368
I43
sg1369
I32
sg1370
I49
sg1371
I41
sg1372
I42
sg1373
I46
sg1374
I42
sg1375
I36
sg1376
I40
sg1377
I36
sg1378
I38
sg1379
I40
sg1380
I38
sg1381
I42
sg1382
I44
sg1383
I43
sg1384
I46
sg1385
I39
sg1386
I41
sg1387
I41
sg1388
I43
sg1389
I33
sg1390
I45
sg1391
I35
sg1392
I43
sg1393
I39
sg1394
I37
sg1395
I41
sg1396
I38
sg1397
I40
sg1398
I35
sg1399
I35
sg1400
I34
sg1401
I36
sg1402
I35
sg1403
I43
sg1404
I36
sg1405
I43
sg1406
I42
sg1407
I47
sg1408
I45
sg1409
I39
sg1410
I36
sg1411
I42
sg1412
I42
sg1413
I46
sg1414
I33
sg1415
I48
sg1416
I36
sg1417
I46
sg1418
I39
sg1419
I39
sg1420
I39
sg1421
I38
sg1422
I42
sg1423
I38
sg1424
I36
sg1425
I43
sg1426
I41
sg1427
I40
sg1428
I40
sg1429
I49
sg1430
I44
sg1431
I40
sg1432
I40
sg1433
I38
sg1434
I42
sg1435
I38
sg1436
I37
sg1437
I46
sg1438
I36
sg1439
I40
sg1440
I47
sg1441
I41
sg1442
I45
sg1443
I36
sg1444
I40
sg1445
I42
sg1446
I41
sg1447
I49
sg1448
I41
sg1449
I39
sg1450
I33
sg1451
I35
sg1452
I44
sg1453
I34
sg1454
I37
sg1455
I39
sg1456
I37
sg1457
I43
sg1458
I33
sg1459
I40
sg1460
I42
sg1461
I36
sg1462
I31
sg1463
I43
sg1464
I38
sg1465
I44
sg1466
I42
sg1467
I50
sg1468
I34
sg1469
I38
sg1470
I39
sg1471
I35
sg1472
I37
sg1473
I41
sg1474
I37
sg1475
I37
sg1476
I46
sg1477
I41
sg1478
I35
sg1479
I38
sg1480
I42
sg1481
I45
sg1482
I41
sg1483
I48
sg1484
I41
sg1485
I34
sg1486
I35
sg1487
I35
sg1488
I43
sg1489
I32
sg1490
I39
sg1491
I38
sg1492
I38
sg1493
I44
sg1494
I34
sg1495
I38
sg1496
I42
sg1497
I42
sg1498
I40
sg1499
I42
sg1500
I38
sg1501
I44
sg1502
I34
sg1503
I40
sg1504
I40
sg1505
I44
sg1506
I38
sg1507
I41
sg1508
I38
sg1509
I32
sg1510
I46
sg1511
I41
sg1512
I31
sg1513
I40
sg1514
I43
sg1515
I39
sg1516
I40
sg1517
I46
sg1518
I37
sg1519
I45
sg1520
I40
sg1521
I43
sg1522
I42
sg1523
I41
sg1524
I33
sg1525
I31
sg1526
I38
sg1527
I35
sg1528
I35
sg1529
I38
sg1530
I33
sg1531
I39
sg1532
I34
sg1533
I54
sg1534
I46
sg1535
I45
sg1536
I34
sg1537
I38
sg1538
I36
sg1539
I47
sg1540
I34
sg1541
I42
sg1542
I39
sg1543
I38
sg1544
I31
sg1545
I37
sg1546
I40
sg1547
I43
sg1548
I37
sg1549
I35
sg1550
I35
sg1551
I37
sg1552
I51
sg1553
I47
sg1554
I34
sg1555
I40
sg1556
I44
sg1557
I41
sg1558
I38
sg1559
I33
sg1560
I38
sg1561
I48
sg1562
I48
sg1563
I40
sg1564
I40
sg1565
I35
sg1566
I45
sg1567
I40
sg1568
I36
sg1569
I35
sg1570
I39
sg1571
I34
sg1572
I43
sg1573
I46
sg1574
I33
sg1575
I39
sg1576
I43
sg1577
I38
sg1578
I42
sg1579
I39
sg1580
I35
sg1581
I32
sg1582
I34
sg1583
I41
sg1584
I38
sg1585
I33
sg1586
I34
sg1587
I40
sg1588
I31
sg1589
I36
sg1590
I37
sg1591
I39
sg1592
I32
sg1593
I46
sg1594
I39
sg1595
I36
sg1596
I41
sg1597
I44
sg1598
I38
sg1599
I38
sg1600
I41
sg1601
I38
sg1602
I38
sg1603
I39
sg1604
I32
sg1605
I42
sg1606
I41
sg1607
I36
sg1608
I36
sg1609
I42
sg1610
I32
sg1611
I39
sg1612
I40
sg1613
I36
sg1614
I37
sg1615
I43
sg1616
I33
sg1617
I37
sg1618
I40
sg1619
I36
sg1620
I36
sg1621
I37
sg1622
I32
sg1623
I40
sg1624
I36
sg1625
I38
sg1626
I34
sg1627
I38
sg1628
I34
sg1629
I36
sg1630
I39
sg1631
I36
sg1632
I42
sg1633
I36
sg1634
I37
sg1635
I39
sg1636
I36
sg1637
I35
sg1638
I40
sg1639
I34
sg1640
I38
sg1641
I37
sg1642
I43
sg1643
I41
sg1644
I40
sg1645
I31
sg1646
I35
sg1647
I41
sg1648
I40
sg1649
I38
sg1650
I36
sg1651
I32
sg1652
I42
sg1653
I43
sg1654
I41
sg1655
I34
sg1656
I42
sg1657
I38
sg1658
I34
sg1659
I44
sg1660
I40
sg1661
I36
sg1662
I36
sg1663
I38
sg1664
I34
sg1665
I35
sg1666
I42
sg1667
I43
sg1668
I40
sg1669
I35
sg1670
I36
sg1671
I35
sg1672
I38
sg1673
I37
sg1674
I39
sg1675
I35
sg1676
I39
sg1677
I40
sg1678
I33
sg1679
I42
sg1680
I40
sg1681
I50
sg1682
I37
sg1683
I42
sg1684
I32
sg1685
I33
sg1686
I33
sg1687
I32
sg1688
I40
sg1689
I41
sg1690
I37
sg1691
I42
sg1692
I35
sg1693
I33
sg1694
I46
sg1695
I40
sg1696
I44
sg1697
I40
sg1698
I37
sg1699
I44
sg1700
I32
sg1701
I43
sg1702
I40
sg1703
I42
sg1704
I48
sg1705
I44
sg1706
I35
sg1707
I38
sg1708
I36
sg1709
I37
sg1710
I33
sg1711
I49
sg1712
I36
sg1713
I33
sg1714
I37
sg1715
I42
sg1716
I36
sg1717
I40
sg1718
I37
sg1719
I41
sg1720
I38
sg1721
I43
sg1722
I39
sg1723
I42
sg1724
I44
sg1725
I43
sg1726
I38
sg1727
I44
sg1728
I42
sg1729
I40
sg1730
I38
sg1731
I35
sg1732
I38
sg1733
I36
sg1734
I32
sg1735
I40
sg1736
I38
sg1737
I36
sg1738
I38
sg1739
I40
sg1740
I42
sg1741
I34
sg1742
I42
sg1743
I41
sg1744
I41
sg1745
I37
sg1746
I46
sg1747
I33
sg1748
I40
sg1749
I32
sg1750
I43
sg1751
I41
sg1752
I35
sg1753
I44
sg1754
I42
sg1755
I39
sg1756
I40
sg1757
I38
sg1758
I37
sg1759
I42
sg1760
I41
sg1761
I38
sg1762
I38
sg1763
I39
sg1764
I39
sg1765
I45
sg1766
I38
sg1767
I40
sg1768
I38
sg1769
I45
sg1770
I41
sg1771
I47
sg1772
I32
sg1773
I40
sg1774
I38
sg1775
I38
sg1776
I47
sg1777
I36
sg1778
I41
sg1779
I33
sg1780
I36
sg1781
I43
sg1782
I40
sg1783
I37
sg1784
I39
sg1785
I34
sg1786
I40
sg1787
I38
sg1788
I35
sg1789
I35
sg1790
I37
sg1791
I37
sg1792
I31
sg1793
I38
sg1794
I40
sg1795
I37
sg1796
I42
sg1797
I38
sg1798
I33
sg1799
I39
sg1800
I38
sg1801
I47
ss.